

Microchip MPLAB XC8 Assembler V2.10 build 88905656 
                                                                                               Mon Jun 22 16:53:48 2020

Microchip MPLAB XC8 C Compiler v2.10 (Free license) build 20190730164152 Og1 
     1                           	processor	16LF19156
     2                           	opt	pw 120
     3                           	opt	flic
     4                           	psect	nvBANK1,global,class=BANK1,space=1,delta=1
     5                           	psect	stringtext1,global,class=STRCODE,delta=2
     6                           	psect	stringtext2,global,class=STRCODE,delta=2
     7                           	psect	cinit,global,class=CODE,merge=1,delta=2
     8                           	psect	bssBANK0,global,class=BANK0,space=1,delta=1
     9                           	psect	bssBANK1,global,class=BANK1,space=1,delta=1
    10                           	psect	clrtext,global,class=CODE,delta=2
    11                           	psect	cstackBANK1,global,class=BANK1,space=1,delta=1
    12                           	psect	cstackCOMMON,global,class=COMMON,space=1,delta=1
    13                           	psect	cstackBANK0,global,class=BANK0,space=1,delta=1
    14                           	psect	maintext,global,class=CODE,merge=1,split=1,delta=2
    15                           	psect	text1,local,class=CODE,merge=1,delta=2
    16                           	psect	text2,local,class=CODE,merge=1,delta=2,group=2
    17                           	psect	text3,local,class=CODE,merge=1,delta=2
    18                           	psect	text4,local,class=CODE,merge=1,delta=2
    19                           	psect	text5,local,class=CODE,merge=1,delta=2
    20                           	psect	text6,local,class=CODE,merge=1,delta=2
    21                           	psect	text7,local,class=CODE,merge=1,delta=2,group=2
    22                           	psect	text8,local,class=CODE,merge=1,delta=2,group=2
    23                           	psect	text9,local,class=CODE,merge=1,delta=2,group=2
    24                           	psect	text10,local,class=CODE,merge=1,delta=2
    25                           	psect	text11,local,class=CODE,merge=1,delta=2
    26                           	psect	text12,local,class=CODE,merge=1,delta=2,group=2
    27                           	psect	text13,local,class=CODE,merge=1,delta=2,group=1
    28                           	psect	text14,local,class=CODE,merge=1,delta=2,group=1
    29                           	psect	text15,local,class=CODE,merge=1,delta=2
    30                           	psect	text16,local,class=CODE,merge=1,delta=2
    31                           	psect	text17,local,class=CODE,merge=1,delta=2
    32                           	psect	text18,local,class=CODE,merge=1,delta=2
    33                           	psect	text19,local,class=CODE,merge=1,delta=2
    34                           	psect	text20,local,class=CODE,merge=1,delta=2
    35                           	psect	text21,local,class=CODE,merge=1,delta=2
    36                           	psect	text22,local,class=CODE,merge=1,delta=2
    37                           	psect	text23,local,class=CODE,merge=1,delta=2
    38                           	psect	text24,local,class=CODE,merge=1,delta=2
    39                           	psect	text25,local,class=CODE,merge=1,delta=2
    40                           	psect	intentry,global,class=CODE,delta=2
    41                           	psect	text27,local,class=CODE,merge=1,delta=2
    42                           	psect	text28,local,class=CODE,merge=1,delta=2
    43                           	psect	text29,local,class=CODE,merge=1,delta=2
    44                           	dabs	1,0x7E,2
    45  0000                     
    46                           ; Version 2.10
    47                           ; Generated 31/07/2019 GMT
    48                           ; 
    49                           ; Copyright © 2019, Microchip Technology Inc. and its subsidiaries ("Microchip")
    50                           ; All rights reserved.
    51                           ; 
    52                           ; This software is developed by Microchip Technology Inc. and its subsidiaries ("Microch
      +                          ip").
    53                           ; 
    54                           ; Redistribution and use in source and binary forms, with or without modification, are
    55                           ; permitted provided that the following conditions are met:
    56                           ; 
    57                           ;     1. Redistributions of source code must retain the above copyright notice, this lis
      +                          t of
    58                           ;        conditions and the following disclaimer.
    59                           ; 
    60                           ;     2. Redistributions in binary form must reproduce the above copyright notice, this 
      +                          list
    61                           ;        of conditions and the following disclaimer in the documentation and/or other
    62                           ;        materials provided with the distribution.
    63                           ; 
    64                           ;     3. Microchip's name may not be used to endorse or promote products derived from th
      +                          is
    65                           ;        software without specific prior written permission.
    66                           ; 
    67                           ; THIS SOFTWARE IS PROVIDED BY MICROCHIP "AS IS" AND ANY EXPRESS OR IMPLIED WARRANTIES,
    68                           ; INCLUDING, BUT NOT LIMITED TO, THE IMPLIED WARRANTIES OF MERCHANTABILITY AND FITNESS F
      +                          OR
    69                           ; PURPOSE ARE DISCLAIMED.  IN NO EVENT SHALL MICROCHIP BE LIABLE FOR ANY DIRECT, INDIREC
      +                          T,
    70                           ; INCIDENTAL, SPECIAL, EXEMPLARY, OR CONSEQUENTIAL DAMAGES (INCLUDING BUT NOT LIMITED TO
    71                           ; PROCUREMENT OF SUBSTITUTE GOODS OR SERVICES; LOSS OF USE, DATA OR PROFITS; OR BUSINESS
    72                           ; INTERRUPTION) HOWSOEVER CAUSED AND ON ANY THEORY OF LIABILITY, WHETHER IN CONTRACT, ST
      +                          RICT
    73                           ; LIABILITY, OR TORT (INCLUDING NEGLIGENCE OR OTHERWISE) ARISING IN ANY WAY OUT OF THE U
      +                          SE OF
    74                           ; THIS SOFTWARE, EVEN IF ADVISED OF THE POSSIBILITY OF SUCH DAMAGE.
    75                           ; 
    76                           ; 
    77                           ; Code-generator required, PIC16LF19156 Definitions
    78                           ; 
    79                           ; SFR Addresses
    80  0000                     	;# 
    81  0001                     	;# 
    82  0002                     	;# 
    83  0003                     	;# 
    84  0004                     	;# 
    85  0005                     	;# 
    86  0006                     	;# 
    87  0007                     	;# 
    88  0008                     	;# 
    89  0009                     	;# 
    90  000A                     	;# 
    91  000B                     	;# 
    92  000C                     	;# 
    93  000D                     	;# 
    94  000E                     	;# 
    95  0010                     	;# 
    96  0012                     	;# 
    97  0013                     	;# 
    98  0014                     	;# 
    99  0018                     	;# 
   100  0019                     	;# 
   101  001A                     	;# 
   102  001F                     	;# 
   103  008C                     	;# 
   104  008C                     	;# 
   105  008D                     	;# 
   106  008E                     	;# 
   107  008E                     	;# 
   108  008F                     	;# 
   109  0090                     	;# 
   110  0090                     	;# 
   111  0091                     	;# 
   112  0092                     	;# 
   113  0092                     	;# 
   114  0093                     	;# 
   115  0094                     	;# 
   116  0094                     	;# 
   117  0095                     	;# 
   118  0096                     	;# 
   119  0096                     	;# 
   120  0097                     	;# 
   121  0098                     	;# 
   122  0099                     	;# 
   123  009A                     	;# 
   124  009B                     	;# 
   125  009B                     	;# 
   126  009C                     	;# 
   127  009D                     	;# 
   128  009D                     	;# 
   129  009E                     	;# 
   130  009F                     	;# 
   131  010C                     	;# 
   132  010C                     	;# 
   133  010D                     	;# 
   134  010E                     	;# 
   135  010F                     	;# 
   136  010F                     	;# 
   137  0110                     	;# 
   138  0111                     	;# 
   139  0112                     	;# 
   140  0113                     	;# 
   141  0114                     	;# 
   142  0115                     	;# 
   143  0116                     	;# 
   144  0117                     	;# 
   145  0118                     	;# 
   146  0119                     	;# 
   147  0119                     	;# 
   148  0119                     	;# 
   149  011A                     	;# 
   150  011A                     	;# 
   151  011A                     	;# 
   152  011B                     	;# 
   153  011B                     	;# 
   154  011B                     	;# 
   155  011B                     	;# 
   156  011B                     	;# 
   157  011C                     	;# 
   158  011C                     	;# 
   159  011C                     	;# 
   160  011D                     	;# 
   161  011D                     	;# 
   162  011D                     	;# 
   163  011E                     	;# 
   164  011E                     	;# 
   165  011E                     	;# 
   166  011F                     	;# 
   167  011F                     	;# 
   168  011F                     	;# 
   169  011F                     	;# 
   170  011F                     	;# 
   171  018C                     	;# 
   172  018D                     	;# 
   173  018E                     	;# 
   174  018F                     	;# 
   175  0190                     	;# 
   176  0191                     	;# 
   177  0192                     	;# 
   178  020C                     	;# 
   179  020C                     	;# 
   180  020D                     	;# 
   181  020E                     	;# 
   182  020F                     	;# 
   183  020F                     	;# 
   184  0210                     	;# 
   185  0210                     	;# 
   186  0211                     	;# 
   187  0211                     	;# 
   188  021E                     	;# 
   189  028C                     	;# 
   190  028C                     	;# 
   191  028D                     	;# 
   192  028D                     	;# 
   193  028E                     	;# 
   194  028F                     	;# 
   195  0290                     	;# 
   196  0290                     	;# 
   197  0291                     	;# 
   198  0292                     	;# 
   199  0292                     	;# 
   200  0293                     	;# 
   201  0293                     	;# 
   202  0294                     	;# 
   203  0295                     	;# 
   204  0296                     	;# 
   205  0296                     	;# 
   206  0297                     	;# 
   207  030C                     	;# 
   208  030C                     	;# 
   209  030D                     	;# 
   210  030E                     	;# 
   211  030F                     	;# 
   212  0310                     	;# 
   213  0310                     	;# 
   214  0311                     	;# 
   215  0312                     	;# 
   216  0313                     	;# 
   217  0314                     	;# 
   218  0314                     	;# 
   219  0315                     	;# 
   220  0316                     	;# 
   221  0318                     	;# 
   222  0318                     	;# 
   223  0319                     	;# 
   224  031A                     	;# 
   225  040D                     	;# 
   226  048C                     	;# 
   227  048C                     	;# 
   228  048D                     	;# 
   229  048E                     	;# 
   230  048F                     	;# 
   231  048F                     	;# 
   232  0490                     	;# 
   233  0491                     	;# 
   234  0492                     	;# 
   235  0492                     	;# 
   236  0493                     	;# 
   237  0494                     	;# 
   238  0495                     	;# 
   239  0495                     	;# 
   240  0496                     	;# 
   241  0497                     	;# 
   242  0498                     	;# 
   243  0499                     	;# 
   244  049A                     	;# 
   245  049B                     	;# 
   246  049C                     	;# 
   247  049D                     	;# 
   248  059C                     	;# 
   249  059C                     	;# 
   250  059D                     	;# 
   251  059D                     	;# 
   252  059E                     	;# 
   253  059F                     	;# 
   254  060C                     	;# 
   255  060D                     	;# 
   256  060E                     	;# 
   257  060F                     	;# 
   258  0610                     	;# 
   259  0611                     	;# 
   260  0612                     	;# 
   261  0613                     	;# 
   262  0614                     	;# 
   263  070C                     	;# 
   264  070D                     	;# 
   265  070E                     	;# 
   266  070F                     	;# 
   267  0710                     	;# 
   268  0711                     	;# 
   269  0712                     	;# 
   270  0713                     	;# 
   271  0714                     	;# 
   272  0716                     	;# 
   273  0717                     	;# 
   274  0718                     	;# 
   275  0719                     	;# 
   276  071A                     	;# 
   277  071B                     	;# 
   278  071C                     	;# 
   279  071D                     	;# 
   280  071E                     	;# 
   281  0796                     	;# 
   282  0797                     	;# 
   283  0798                     	;# 
   284  0799                     	;# 
   285  079A                     	;# 
   286  079B                     	;# 
   287  080C                     	;# 
   288  080D                     	;# 
   289  080E                     	;# 
   290  080F                     	;# 
   291  0810                     	;# 
   292  0811                     	;# 
   293  0813                     	;# 
   294  0814                     	;# 
   295  081A                     	;# 
   296  081B                     	;# 
   297  081C                     	;# 
   298  081D                     	;# 
   299  081E                     	;# 
   300  081F                     	;# 
   301  088C                     	;# 
   302  088D                     	;# 
   303  088E                     	;# 
   304  088F                     	;# 
   305  0890                     	;# 
   306  0891                     	;# 
   307  0892                     	;# 
   308  0893                     	;# 
   309  0894                     	;# 
   310  090C                     	;# 
   311  090E                     	;# 
   312  090F                     	;# 
   313  091F                     	;# 
   314  098F                     	;# 
   315  098F                     	;# 
   316  0990                     	;# 
   317  0991                     	;# 
   318  0992                     	;# 
   319  0993                     	;# 
   320  0994                     	;# 
   321  0995                     	;# 
   322  0996                     	;# 
   323  0997                     	;# 
   324  0A19                     	;# 
   325  0A19                     	;# 
   326  0A1A                     	;# 
   327  0A1A                     	;# 
   328  0A1B                     	;# 
   329  0A1B                     	;# 
   330  0A1B                     	;# 
   331  0A1C                     	;# 
   332  0A1C                     	;# 
   333  0A1D                     	;# 
   334  0A1D                     	;# 
   335  0A1E                     	;# 
   336  0A1E                     	;# 
   337  0A1F                     	;# 
   338  0A1F                     	;# 
   339  0A1F                     	;# 
   340  0C0C                     	;# 
   341  0C0D                     	;# 
   342  0C0E                     	;# 
   343  0C0F                     	;# 
   344  0C10                     	;# 
   345  0C11                     	;# 
   346  0C12                     	;# 
   347  0C13                     	;# 
   348  0C14                     	;# 
   349  0C15                     	;# 
   350  0C16                     	;# 
   351  0C17                     	;# 
   352  0C18                     	;# 
   353  0C19                     	;# 
   354  0C1A                     	;# 
   355  0C1B                     	;# 
   356  0C1C                     	;# 
   357  0E8C                     	;# 
   358  0E8D                     	;# 
   359  0E8E                     	;# 
   360  0E8F                     	;# 
   361  1D0C                     	;# 
   362  1D0D                     	;# 
   363  1D0E                     	;# 
   364  1D0F                     	;# 
   365  1D10                     	;# 
   366  1D11                     	;# 
   367  1D12                     	;# 
   368  1D13                     	;# 
   369  1D14                     	;# 
   370  1D15                     	;# 
   371  1D16                     	;# 
   372  1D17                     	;# 
   373  1D18                     	;# 
   374  1D19                     	;# 
   375  1D1A                     	;# 
   376  1D1E                     	;# 
   377  1D1F                     	;# 
   378  1D20                     	;# 
   379  1D24                     	;# 
   380  1D25                     	;# 
   381  1D26                     	;# 
   382  1D2A                     	;# 
   383  1D2B                     	;# 
   384  1D2C                     	;# 
   385  1D30                     	;# 
   386  1D31                     	;# 
   387  1D32                     	;# 
   388  1D36                     	;# 
   389  1D37                     	;# 
   390  1D38                     	;# 
   391  1D3C                     	;# 
   392  1D3D                     	;# 
   393  1D3E                     	;# 
   394  1D42                     	;# 
   395  1D43                     	;# 
   396  1D44                     	;# 
   397  1E0F                     	;# 
   398  1E10                     	;# 
   399  1E11                     	;# 
   400  1E12                     	;# 
   401  1E13                     	;# 
   402  1E14                     	;# 
   403  1E15                     	;# 
   404  1E16                     	;# 
   405  1E17                     	;# 
   406  1E18                     	;# 
   407  1E19                     	;# 
   408  1E1A                     	;# 
   409  1E1B                     	;# 
   410  1E1C                     	;# 
   411  1E1D                     	;# 
   412  1E1E                     	;# 
   413  1E1F                     	;# 
   414  1E20                     	;# 
   415  1E21                     	;# 
   416  1E22                     	;# 
   417  1E23                     	;# 
   418  1E24                     	;# 
   419  1E25                     	;# 
   420  1E26                     	;# 
   421  1E27                     	;# 
   422  1E28                     	;# 
   423  1E29                     	;# 
   424  1E2A                     	;# 
   425  1E2B                     	;# 
   426  1E2C                     	;# 
   427  1E2D                     	;# 
   428  1E2E                     	;# 
   429  1E2F                     	;# 
   430  1E30                     	;# 
   431  1E31                     	;# 
   432  1E32                     	;# 
   433  1E33                     	;# 
   434  1E34                     	;# 
   435  1E35                     	;# 
   436  1E36                     	;# 
   437  1E37                     	;# 
   438  1E8F                     	;# 
   439  1E90                     	;# 
   440  1E91                     	;# 
   441  1E92                     	;# 
   442  1E93                     	;# 
   443  1E9C                     	;# 
   444  1E9D                     	;# 
   445  1EA1                     	;# 
   446  1EA2                     	;# 
   447  1EA9                     	;# 
   448  1EAA                     	;# 
   449  1EB1                     	;# 
   450  1EBB                     	;# 
   451  1EBC                     	;# 
   452  1EBD                     	;# 
   453  1EBE                     	;# 
   454  1EC3                     	;# 
   455  1EC5                     	;# 
   456  1EC6                     	;# 
   457  1EC7                     	;# 
   458  1ECB                     	;# 
   459  1ECC                     	;# 
   460  1ECD                     	;# 
   461  1ECE                     	;# 
   462  1F10                     	;# 
   463  1F11                     	;# 
   464  1F12                     	;# 
   465  1F13                     	;# 
   466  1F14                     	;# 
   467  1F15                     	;# 
   468  1F16                     	;# 
   469  1F17                     	;# 
   470  1F18                     	;# 
   471  1F19                     	;# 
   472  1F1A                     	;# 
   473  1F1B                     	;# 
   474  1F1C                     	;# 
   475  1F1D                     	;# 
   476  1F1E                     	;# 
   477  1F1F                     	;# 
   478  1F20                     	;# 
   479  1F21                     	;# 
   480  1F22                     	;# 
   481  1F23                     	;# 
   482  1F24                     	;# 
   483  1F26                     	;# 
   484  1F27                     	;# 
   485  1F38                     	;# 
   486  1F39                     	;# 
   487  1F3A                     	;# 
   488  1F3B                     	;# 
   489  1F3C                     	;# 
   490  1F3D                     	;# 
   491  1F3E                     	;# 
   492  1F3F                     	;# 
   493  1F43                     	;# 
   494  1F44                     	;# 
   495  1F45                     	;# 
   496  1F46                     	;# 
   497  1F47                     	;# 
   498  1F48                     	;# 
   499  1F49                     	;# 
   500  1F4A                     	;# 
   501  1F4E                     	;# 
   502  1F4F                     	;# 
   503  1F50                     	;# 
   504  1F51                     	;# 
   505  1F52                     	;# 
   506  1F53                     	;# 
   507  1F54                     	;# 
   508  1F55                     	;# 
   509  1F65                     	;# 
   510  1F68                     	;# 
   511  1F69                     	;# 
   512  1F6A                     	;# 
   513  1F6B                     	;# 
   514  1FE4                     	;# 
   515  1FE5                     	;# 
   516  1FE6                     	;# 
   517  1FE7                     	;# 
   518  1FE8                     	;# 
   519  1FE9                     	;# 
   520  1FEA                     	;# 
   521  1FEB                     	;# 
   522  1FED                     	;# 
   523  1FEE                     	;# 
   524  1FEF                     	;# 
   525  0000                     	;# 
   526  0001                     	;# 
   527  0002                     	;# 
   528  0003                     	;# 
   529  0004                     	;# 
   530  0005                     	;# 
   531  0006                     	;# 
   532  0007                     	;# 
   533  0008                     	;# 
   534  0009                     	;# 
   535  000A                     	;# 
   536  000B                     	;# 
   537  000C                     	;# 
   538  000D                     	;# 
   539  000E                     	;# 
   540  0010                     	;# 
   541  0012                     	;# 
   542  0013                     	;# 
   543  0014                     	;# 
   544  0018                     	;# 
   545  0019                     	;# 
   546  001A                     	;# 
   547  001F                     	;# 
   548  008C                     	;# 
   549  008C                     	;# 
   550  008D                     	;# 
   551  008E                     	;# 
   552  008E                     	;# 
   553  008F                     	;# 
   554  0090                     	;# 
   555  0090                     	;# 
   556  0091                     	;# 
   557  0092                     	;# 
   558  0092                     	;# 
   559  0093                     	;# 
   560  0094                     	;# 
   561  0094                     	;# 
   562  0095                     	;# 
   563  0096                     	;# 
   564  0096                     	;# 
   565  0097                     	;# 
   566  0098                     	;# 
   567  0099                     	;# 
   568  009A                     	;# 
   569  009B                     	;# 
   570  009B                     	;# 
   571  009C                     	;# 
   572  009D                     	;# 
   573  009D                     	;# 
   574  009E                     	;# 
   575  009F                     	;# 
   576  010C                     	;# 
   577  010C                     	;# 
   578  010D                     	;# 
   579  010E                     	;# 
   580  010F                     	;# 
   581  010F                     	;# 
   582  0110                     	;# 
   583  0111                     	;# 
   584  0112                     	;# 
   585  0113                     	;# 
   586  0114                     	;# 
   587  0115                     	;# 
   588  0116                     	;# 
   589  0117                     	;# 
   590  0118                     	;# 
   591  0119                     	;# 
   592  0119                     	;# 
   593  0119                     	;# 
   594  011A                     	;# 
   595  011A                     	;# 
   596  011A                     	;# 
   597  011B                     	;# 
   598  011B                     	;# 
   599  011B                     	;# 
   600  011B                     	;# 
   601  011B                     	;# 
   602  011C                     	;# 
   603  011C                     	;# 
   604  011C                     	;# 
   605  011D                     	;# 
   606  011D                     	;# 
   607  011D                     	;# 
   608  011E                     	;# 
   609  011E                     	;# 
   610  011E                     	;# 
   611  011F                     	;# 
   612  011F                     	;# 
   613  011F                     	;# 
   614  011F                     	;# 
   615  011F                     	;# 
   616  018C                     	;# 
   617  018D                     	;# 
   618  018E                     	;# 
   619  018F                     	;# 
   620  0190                     	;# 
   621  0191                     	;# 
   622  0192                     	;# 
   623  020C                     	;# 
   624  020C                     	;# 
   625  020D                     	;# 
   626  020E                     	;# 
   627  020F                     	;# 
   628  020F                     	;# 
   629  0210                     	;# 
   630  0210                     	;# 
   631  0211                     	;# 
   632  0211                     	;# 
   633  021E                     	;# 
   634  028C                     	;# 
   635  028C                     	;# 
   636  028D                     	;# 
   637  028D                     	;# 
   638  028E                     	;# 
   639  028F                     	;# 
   640  0290                     	;# 
   641  0290                     	;# 
   642  0291                     	;# 
   643  0292                     	;# 
   644  0292                     	;# 
   645  0293                     	;# 
   646  0293                     	;# 
   647  0294                     	;# 
   648  0295                     	;# 
   649  0296                     	;# 
   650  0296                     	;# 
   651  0297                     	;# 
   652  030C                     	;# 
   653  030C                     	;# 
   654  030D                     	;# 
   655  030E                     	;# 
   656  030F                     	;# 
   657  0310                     	;# 
   658  0310                     	;# 
   659  0311                     	;# 
   660  0312                     	;# 
   661  0313                     	;# 
   662  0314                     	;# 
   663  0314                     	;# 
   664  0315                     	;# 
   665  0316                     	;# 
   666  0318                     	;# 
   667  0318                     	;# 
   668  0319                     	;# 
   669  031A                     	;# 
   670  040D                     	;# 
   671  048C                     	;# 
   672  048C                     	;# 
   673  048D                     	;# 
   674  048E                     	;# 
   675  048F                     	;# 
   676  048F                     	;# 
   677  0490                     	;# 
   678  0491                     	;# 
   679  0492                     	;# 
   680  0492                     	;# 
   681  0493                     	;# 
   682  0494                     	;# 
   683  0495                     	;# 
   684  0495                     	;# 
   685  0496                     	;# 
   686  0497                     	;# 
   687  0498                     	;# 
   688  0499                     	;# 
   689  049A                     	;# 
   690  049B                     	;# 
   691  049C                     	;# 
   692  049D                     	;# 
   693  059C                     	;# 
   694  059C                     	;# 
   695  059D                     	;# 
   696  059D                     	;# 
   697  059E                     	;# 
   698  059F                     	;# 
   699  060C                     	;# 
   700  060D                     	;# 
   701  060E                     	;# 
   702  060F                     	;# 
   703  0610                     	;# 
   704  0611                     	;# 
   705  0612                     	;# 
   706  0613                     	;# 
   707  0614                     	;# 
   708  070C                     	;# 
   709  070D                     	;# 
   710  070E                     	;# 
   711  070F                     	;# 
   712  0710                     	;# 
   713  0711                     	;# 
   714  0712                     	;# 
   715  0713                     	;# 
   716  0714                     	;# 
   717  0716                     	;# 
   718  0717                     	;# 
   719  0718                     	;# 
   720  0719                     	;# 
   721  071A                     	;# 
   722  071B                     	;# 
   723  071C                     	;# 
   724  071D                     	;# 
   725  071E                     	;# 
   726  0796                     	;# 
   727  0797                     	;# 
   728  0798                     	;# 
   729  0799                     	;# 
   730  079A                     	;# 
   731  079B                     	;# 
   732  080C                     	;# 
   733  080D                     	;# 
   734  080E                     	;# 
   735  080F                     	;# 
   736  0810                     	;# 
   737  0811                     	;# 
   738  0813                     	;# 
   739  0814                     	;# 
   740  081A                     	;# 
   741  081B                     	;# 
   742  081C                     	;# 
   743  081D                     	;# 
   744  081E                     	;# 
   745  081F                     	;# 
   746  088C                     	;# 
   747  088D                     	;# 
   748  088E                     	;# 
   749  088F                     	;# 
   750  0890                     	;# 
   751  0891                     	;# 
   752  0892                     	;# 
   753  0893                     	;# 
   754  0894                     	;# 
   755  090C                     	;# 
   756  090E                     	;# 
   757  090F                     	;# 
   758  091F                     	;# 
   759  098F                     	;# 
   760  098F                     	;# 
   761  0990                     	;# 
   762  0991                     	;# 
   763  0992                     	;# 
   764  0993                     	;# 
   765  0994                     	;# 
   766  0995                     	;# 
   767  0996                     	;# 
   768  0997                     	;# 
   769  0A19                     	;# 
   770  0A19                     	;# 
   771  0A1A                     	;# 
   772  0A1A                     	;# 
   773  0A1B                     	;# 
   774  0A1B                     	;# 
   775  0A1B                     	;# 
   776  0A1C                     	;# 
   777  0A1C                     	;# 
   778  0A1D                     	;# 
   779  0A1D                     	;# 
   780  0A1E                     	;# 
   781  0A1E                     	;# 
   782  0A1F                     	;# 
   783  0A1F                     	;# 
   784  0A1F                     	;# 
   785  0C0C                     	;# 
   786  0C0D                     	;# 
   787  0C0E                     	;# 
   788  0C0F                     	;# 
   789  0C10                     	;# 
   790  0C11                     	;# 
   791  0C12                     	;# 
   792  0C13                     	;# 
   793  0C14                     	;# 
   794  0C15                     	;# 
   795  0C16                     	;# 
   796  0C17                     	;# 
   797  0C18                     	;# 
   798  0C19                     	;# 
   799  0C1A                     	;# 
   800  0C1B                     	;# 
   801  0C1C                     	;# 
   802  0E8C                     	;# 
   803  0E8D                     	;# 
   804  0E8E                     	;# 
   805  0E8F                     	;# 
   806  1D0C                     	;# 
   807  1D0D                     	;# 
   808  1D0E                     	;# 
   809  1D0F                     	;# 
   810  1D10                     	;# 
   811  1D11                     	;# 
   812  1D12                     	;# 
   813  1D13                     	;# 
   814  1D14                     	;# 
   815  1D15                     	;# 
   816  1D16                     	;# 
   817  1D17                     	;# 
   818  1D18                     	;# 
   819  1D19                     	;# 
   820  1D1A                     	;# 
   821  1D1E                     	;# 
   822  1D1F                     	;# 
   823  1D20                     	;# 
   824  1D24                     	;# 
   825  1D25                     	;# 
   826  1D26                     	;# 
   827  1D2A                     	;# 
   828  1D2B                     	;# 
   829  1D2C                     	;# 
   830  1D30                     	;# 
   831  1D31                     	;# 
   832  1D32                     	;# 
   833  1D36                     	;# 
   834  1D37                     	;# 
   835  1D38                     	;# 
   836  1D3C                     	;# 
   837  1D3D                     	;# 
   838  1D3E                     	;# 
   839  1D42                     	;# 
   840  1D43                     	;# 
   841  1D44                     	;# 
   842  1E0F                     	;# 
   843  1E10                     	;# 
   844  1E11                     	;# 
   845  1E12                     	;# 
   846  1E13                     	;# 
   847  1E14                     	;# 
   848  1E15                     	;# 
   849  1E16                     	;# 
   850  1E17                     	;# 
   851  1E18                     	;# 
   852  1E19                     	;# 
   853  1E1A                     	;# 
   854  1E1B                     	;# 
   855  1E1C                     	;# 
   856  1E1D                     	;# 
   857  1E1E                     	;# 
   858  1E1F                     	;# 
   859  1E20                     	;# 
   860  1E21                     	;# 
   861  1E22                     	;# 
   862  1E23                     	;# 
   863  1E24                     	;# 
   864  1E25                     	;# 
   865  1E26                     	;# 
   866  1E27                     	;# 
   867  1E28                     	;# 
   868  1E29                     	;# 
   869  1E2A                     	;# 
   870  1E2B                     	;# 
   871  1E2C                     	;# 
   872  1E2D                     	;# 
   873  1E2E                     	;# 
   874  1E2F                     	;# 
   875  1E30                     	;# 
   876  1E31                     	;# 
   877  1E32                     	;# 
   878  1E33                     	;# 
   879  1E34                     	;# 
   880  1E35                     	;# 
   881  1E36                     	;# 
   882  1E37                     	;# 
   883  1E8F                     	;# 
   884  1E90                     	;# 
   885  1E91                     	;# 
   886  1E92                     	;# 
   887  1E93                     	;# 
   888  1E9C                     	;# 
   889  1E9D                     	;# 
   890  1EA1                     	;# 
   891  1EA2                     	;# 
   892  1EA9                     	;# 
   893  1EAA                     	;# 
   894  1EB1                     	;# 
   895  1EBB                     	;# 
   896  1EBC                     	;# 
   897  1EBD                     	;# 
   898  1EBE                     	;# 
   899  1EC3                     	;# 
   900  1EC5                     	;# 
   901  1EC6                     	;# 
   902  1EC7                     	;# 
   903  1ECB                     	;# 
   904  1ECC                     	;# 
   905  1ECD                     	;# 
   906  1ECE                     	;# 
   907  1F10                     	;# 
   908  1F11                     	;# 
   909  1F12                     	;# 
   910  1F13                     	;# 
   911  1F14                     	;# 
   912  1F15                     	;# 
   913  1F16                     	;# 
   914  1F17                     	;# 
   915  1F18                     	;# 
   916  1F19                     	;# 
   917  1F1A                     	;# 
   918  1F1B                     	;# 
   919  1F1C                     	;# 
   920  1F1D                     	;# 
   921  1F1E                     	;# 
   922  1F1F                     	;# 
   923  1F20                     	;# 
   924  1F21                     	;# 
   925  1F22                     	;# 
   926  1F23                     	;# 
   927  1F24                     	;# 
   928  1F26                     	;# 
   929  1F27                     	;# 
   930  1F38                     	;# 
   931  1F39                     	;# 
   932  1F3A                     	;# 
   933  1F3B                     	;# 
   934  1F3C                     	;# 
   935  1F3D                     	;# 
   936  1F3E                     	;# 
   937  1F3F                     	;# 
   938  1F43                     	;# 
   939  1F44                     	;# 
   940  1F45                     	;# 
   941  1F46                     	;# 
   942  1F47                     	;# 
   943  1F48                     	;# 
   944  1F49                     	;# 
   945  1F4A                     	;# 
   946  1F4E                     	;# 
   947  1F4F                     	;# 
   948  1F50                     	;# 
   949  1F51                     	;# 
   950  1F52                     	;# 
   951  1F53                     	;# 
   952  1F54                     	;# 
   953  1F55                     	;# 
   954  1F65                     	;# 
   955  1F68                     	;# 
   956  1F69                     	;# 
   957  1F6A                     	;# 
   958  1F6B                     	;# 
   959  1FE4                     	;# 
   960  1FE5                     	;# 
   961  1FE6                     	;# 
   962  1FE7                     	;# 
   963  1FE8                     	;# 
   964  1FE9                     	;# 
   965  1FEA                     	;# 
   966  1FEB                     	;# 
   967  1FED                     	;# 
   968  1FEE                     	;# 
   969  1FEF                     	;# 
   970  0000                     	;# 
   971  0001                     	;# 
   972  0002                     	;# 
   973  0003                     	;# 
   974  0004                     	;# 
   975  0005                     	;# 
   976  0006                     	;# 
   977  0007                     	;# 
   978  0008                     	;# 
   979  0009                     	;# 
   980  000A                     	;# 
   981  000B                     	;# 
   982  000C                     	;# 
   983  000D                     	;# 
   984  000E                     	;# 
   985  0010                     	;# 
   986  0012                     	;# 
   987  0013                     	;# 
   988  0014                     	;# 
   989  0018                     	;# 
   990  0019                     	;# 
   991  001A                     	;# 
   992  001F                     	;# 
   993  008C                     	;# 
   994  008C                     	;# 
   995  008D                     	;# 
   996  008E                     	;# 
   997  008E                     	;# 
   998  008F                     	;# 
   999  0090                     	;# 
  1000  0090                     	;# 
  1001  0091                     	;# 
  1002  0092                     	;# 
  1003  0092                     	;# 
  1004  0093                     	;# 
  1005  0094                     	;# 
  1006  0094                     	;# 
  1007  0095                     	;# 
  1008  0096                     	;# 
  1009  0096                     	;# 
  1010  0097                     	;# 
  1011  0098                     	;# 
  1012  0099                     	;# 
  1013  009A                     	;# 
  1014  009B                     	;# 
  1015  009B                     	;# 
  1016  009C                     	;# 
  1017  009D                     	;# 
  1018  009D                     	;# 
  1019  009E                     	;# 
  1020  009F                     	;# 
  1021  010C                     	;# 
  1022  010C                     	;# 
  1023  010D                     	;# 
  1024  010E                     	;# 
  1025  010F                     	;# 
  1026  010F                     	;# 
  1027  0110                     	;# 
  1028  0111                     	;# 
  1029  0112                     	;# 
  1030  0113                     	;# 
  1031  0114                     	;# 
  1032  0115                     	;# 
  1033  0116                     	;# 
  1034  0117                     	;# 
  1035  0118                     	;# 
  1036  0119                     	;# 
  1037  0119                     	;# 
  1038  0119                     	;# 
  1039  011A                     	;# 
  1040  011A                     	;# 
  1041  011A                     	;# 
  1042  011B                     	;# 
  1043  011B                     	;# 
  1044  011B                     	;# 
  1045  011B                     	;# 
  1046  011B                     	;# 
  1047  011C                     	;# 
  1048  011C                     	;# 
  1049  011C                     	;# 
  1050  011D                     	;# 
  1051  011D                     	;# 
  1052  011D                     	;# 
  1053  011E                     	;# 
  1054  011E                     	;# 
  1055  011E                     	;# 
  1056  011F                     	;# 
  1057  011F                     	;# 
  1058  011F                     	;# 
  1059  011F                     	;# 
  1060  011F                     	;# 
  1061  018C                     	;# 
  1062  018D                     	;# 
  1063  018E                     	;# 
  1064  018F                     	;# 
  1065  0190                     	;# 
  1066  0191                     	;# 
  1067  0192                     	;# 
  1068  020C                     	;# 
  1069  020C                     	;# 
  1070  020D                     	;# 
  1071  020E                     	;# 
  1072  020F                     	;# 
  1073  020F                     	;# 
  1074  0210                     	;# 
  1075  0210                     	;# 
  1076  0211                     	;# 
  1077  0211                     	;# 
  1078  021E                     	;# 
  1079  028C                     	;# 
  1080  028C                     	;# 
  1081  028D                     	;# 
  1082  028D                     	;# 
  1083  028E                     	;# 
  1084  028F                     	;# 
  1085  0290                     	;# 
  1086  0290                     	;# 
  1087  0291                     	;# 
  1088  0292                     	;# 
  1089  0292                     	;# 
  1090  0293                     	;# 
  1091  0293                     	;# 
  1092  0294                     	;# 
  1093  0295                     	;# 
  1094  0296                     	;# 
  1095  0296                     	;# 
  1096  0297                     	;# 
  1097  030C                     	;# 
  1098  030C                     	;# 
  1099  030D                     	;# 
  1100  030E                     	;# 
  1101  030F                     	;# 
  1102  0310                     	;# 
  1103  0310                     	;# 
  1104  0311                     	;# 
  1105  0312                     	;# 
  1106  0313                     	;# 
  1107  0314                     	;# 
  1108  0314                     	;# 
  1109  0315                     	;# 
  1110  0316                     	;# 
  1111  0318                     	;# 
  1112  0318                     	;# 
  1113  0319                     	;# 
  1114  031A                     	;# 
  1115  040D                     	;# 
  1116  048C                     	;# 
  1117  048C                     	;# 
  1118  048D                     	;# 
  1119  048E                     	;# 
  1120  048F                     	;# 
  1121  048F                     	;# 
  1122  0490                     	;# 
  1123  0491                     	;# 
  1124  0492                     	;# 
  1125  0492                     	;# 
  1126  0493                     	;# 
  1127  0494                     	;# 
  1128  0495                     	;# 
  1129  0495                     	;# 
  1130  0496                     	;# 
  1131  0497                     	;# 
  1132  0498                     	;# 
  1133  0499                     	;# 
  1134  049A                     	;# 
  1135  049B                     	;# 
  1136  049C                     	;# 
  1137  049D                     	;# 
  1138  059C                     	;# 
  1139  059C                     	;# 
  1140  059D                     	;# 
  1141  059D                     	;# 
  1142  059E                     	;# 
  1143  059F                     	;# 
  1144  060C                     	;# 
  1145  060D                     	;# 
  1146  060E                     	;# 
  1147  060F                     	;# 
  1148  0610                     	;# 
  1149  0611                     	;# 
  1150  0612                     	;# 
  1151  0613                     	;# 
  1152  0614                     	;# 
  1153  070C                     	;# 
  1154  070D                     	;# 
  1155  070E                     	;# 
  1156  070F                     	;# 
  1157  0710                     	;# 
  1158  0711                     	;# 
  1159  0712                     	;# 
  1160  0713                     	;# 
  1161  0714                     	;# 
  1162  0716                     	;# 
  1163  0717                     	;# 
  1164  0718                     	;# 
  1165  0719                     	;# 
  1166  071A                     	;# 
  1167  071B                     	;# 
  1168  071C                     	;# 
  1169  071D                     	;# 
  1170  071E                     	;# 
  1171  0796                     	;# 
  1172  0797                     	;# 
  1173  0798                     	;# 
  1174  0799                     	;# 
  1175  079A                     	;# 
  1176  079B                     	;# 
  1177  080C                     	;# 
  1178  080D                     	;# 
  1179  080E                     	;# 
  1180  080F                     	;# 
  1181  0810                     	;# 
  1182  0811                     	;# 
  1183  0813                     	;# 
  1184  0814                     	;# 
  1185  081A                     	;# 
  1186  081B                     	;# 
  1187  081C                     	;# 
  1188  081D                     	;# 
  1189  081E                     	;# 
  1190  081F                     	;# 
  1191  088C                     	;# 
  1192  088D                     	;# 
  1193  088E                     	;# 
  1194  088F                     	;# 
  1195  0890                     	;# 
  1196  0891                     	;# 
  1197  0892                     	;# 
  1198  0893                     	;# 
  1199  0894                     	;# 
  1200  090C                     	;# 
  1201  090E                     	;# 
  1202  090F                     	;# 
  1203  091F                     	;# 
  1204  098F                     	;# 
  1205  098F                     	;# 
  1206  0990                     	;# 
  1207  0991                     	;# 
  1208  0992                     	;# 
  1209  0993                     	;# 
  1210  0994                     	;# 
  1211  0995                     	;# 
  1212  0996                     	;# 
  1213  0997                     	;# 
  1214  0A19                     	;# 
  1215  0A19                     	;# 
  1216  0A1A                     	;# 
  1217  0A1A                     	;# 
  1218  0A1B                     	;# 
  1219  0A1B                     	;# 
  1220  0A1B                     	;# 
  1221  0A1C                     	;# 
  1222  0A1C                     	;# 
  1223  0A1D                     	;# 
  1224  0A1D                     	;# 
  1225  0A1E                     	;# 
  1226  0A1E                     	;# 
  1227  0A1F                     	;# 
  1228  0A1F                     	;# 
  1229  0A1F                     	;# 
  1230  0C0C                     	;# 
  1231  0C0D                     	;# 
  1232  0C0E                     	;# 
  1233  0C0F                     	;# 
  1234  0C10                     	;# 
  1235  0C11                     	;# 
  1236  0C12                     	;# 
  1237  0C13                     	;# 
  1238  0C14                     	;# 
  1239  0C15                     	;# 
  1240  0C16                     	;# 
  1241  0C17                     	;# 
  1242  0C18                     	;# 
  1243  0C19                     	;# 
  1244  0C1A                     	;# 
  1245  0C1B                     	;# 
  1246  0C1C                     	;# 
  1247  0E8C                     	;# 
  1248  0E8D                     	;# 
  1249  0E8E                     	;# 
  1250  0E8F                     	;# 
  1251  1D0C                     	;# 
  1252  1D0D                     	;# 
  1253  1D0E                     	;# 
  1254  1D0F                     	;# 
  1255  1D10                     	;# 
  1256  1D11                     	;# 
  1257  1D12                     	;# 
  1258  1D13                     	;# 
  1259  1D14                     	;# 
  1260  1D15                     	;# 
  1261  1D16                     	;# 
  1262  1D17                     	;# 
  1263  1D18                     	;# 
  1264  1D19                     	;# 
  1265  1D1A                     	;# 
  1266  1D1E                     	;# 
  1267  1D1F                     	;# 
  1268  1D20                     	;# 
  1269  1D24                     	;# 
  1270  1D25                     	;# 
  1271  1D26                     	;# 
  1272  1D2A                     	;# 
  1273  1D2B                     	;# 
  1274  1D2C                     	;# 
  1275  1D30                     	;# 
  1276  1D31                     	;# 
  1277  1D32                     	;# 
  1278  1D36                     	;# 
  1279  1D37                     	;# 
  1280  1D38                     	;# 
  1281  1D3C                     	;# 
  1282  1D3D                     	;# 
  1283  1D3E                     	;# 
  1284  1D42                     	;# 
  1285  1D43                     	;# 
  1286  1D44                     	;# 
  1287  1E0F                     	;# 
  1288  1E10                     	;# 
  1289  1E11                     	;# 
  1290  1E12                     	;# 
  1291  1E13                     	;# 
  1292  1E14                     	;# 
  1293  1E15                     	;# 
  1294  1E16                     	;# 
  1295  1E17                     	;# 
  1296  1E18                     	;# 
  1297  1E19                     	;# 
  1298  1E1A                     	;# 
  1299  1E1B                     	;# 
  1300  1E1C                     	;# 
  1301  1E1D                     	;# 
  1302  1E1E                     	;# 
  1303  1E1F                     	;# 
  1304  1E20                     	;# 
  1305  1E21                     	;# 
  1306  1E22                     	;# 
  1307  1E23                     	;# 
  1308  1E24                     	;# 
  1309  1E25                     	;# 
  1310  1E26                     	;# 
  1311  1E27                     	;# 
  1312  1E28                     	;# 
  1313  1E29                     	;# 
  1314  1E2A                     	;# 
  1315  1E2B                     	;# 
  1316  1E2C                     	;# 
  1317  1E2D                     	;# 
  1318  1E2E                     	;# 
  1319  1E2F                     	;# 
  1320  1E30                     	;# 
  1321  1E31                     	;# 
  1322  1E32                     	;# 
  1323  1E33                     	;# 
  1324  1E34                     	;# 
  1325  1E35                     	;# 
  1326  1E36                     	;# 
  1327  1E37                     	;# 
  1328  1E8F                     	;# 
  1329  1E90                     	;# 
  1330  1E91                     	;# 
  1331  1E92                     	;# 
  1332  1E93                     	;# 
  1333  1E9C                     	;# 
  1334  1E9D                     	;# 
  1335  1EA1                     	;# 
  1336  1EA2                     	;# 
  1337  1EA9                     	;# 
  1338  1EAA                     	;# 
  1339  1EB1                     	;# 
  1340  1EBB                     	;# 
  1341  1EBC                     	;# 
  1342  1EBD                     	;# 
  1343  1EBE                     	;# 
  1344  1EC3                     	;# 
  1345  1EC5                     	;# 
  1346  1EC6                     	;# 
  1347  1EC7                     	;# 
  1348  1ECB                     	;# 
  1349  1ECC                     	;# 
  1350  1ECD                     	;# 
  1351  1ECE                     	;# 
  1352  1F10                     	;# 
  1353  1F11                     	;# 
  1354  1F12                     	;# 
  1355  1F13                     	;# 
  1356  1F14                     	;# 
  1357  1F15                     	;# 
  1358  1F16                     	;# 
  1359  1F17                     	;# 
  1360  1F18                     	;# 
  1361  1F19                     	;# 
  1362  1F1A                     	;# 
  1363  1F1B                     	;# 
  1364  1F1C                     	;# 
  1365  1F1D                     	;# 
  1366  1F1E                     	;# 
  1367  1F1F                     	;# 
  1368  1F20                     	;# 
  1369  1F21                     	;# 
  1370  1F22                     	;# 
  1371  1F23                     	;# 
  1372  1F24                     	;# 
  1373  1F26                     	;# 
  1374  1F27                     	;# 
  1375  1F38                     	;# 
  1376  1F39                     	;# 
  1377  1F3A                     	;# 
  1378  1F3B                     	;# 
  1379  1F3C                     	;# 
  1380  1F3D                     	;# 
  1381  1F3E                     	;# 
  1382  1F3F                     	;# 
  1383  1F43                     	;# 
  1384  1F44                     	;# 
  1385  1F45                     	;# 
  1386  1F46                     	;# 
  1387  1F47                     	;# 
  1388  1F48                     	;# 
  1389  1F49                     	;# 
  1390  1F4A                     	;# 
  1391  1F4E                     	;# 
  1392  1F4F                     	;# 
  1393  1F50                     	;# 
  1394  1F51                     	;# 
  1395  1F52                     	;# 
  1396  1F53                     	;# 
  1397  1F54                     	;# 
  1398  1F55                     	;# 
  1399  1F65                     	;# 
  1400  1F68                     	;# 
  1401  1F69                     	;# 
  1402  1F6A                     	;# 
  1403  1F6B                     	;# 
  1404  1FE4                     	;# 
  1405  1FE5                     	;# 
  1406  1FE6                     	;# 
  1407  1FE7                     	;# 
  1408  1FE8                     	;# 
  1409  1FE9                     	;# 
  1410  1FEA                     	;# 
  1411  1FEB                     	;# 
  1412  1FED                     	;# 
  1413  1FEE                     	;# 
  1414  1FEF                     	;# 
  1415  0000                     	;# 
  1416  0001                     	;# 
  1417  0002                     	;# 
  1418  0003                     	;# 
  1419  0004                     	;# 
  1420  0005                     	;# 
  1421  0006                     	;# 
  1422  0007                     	;# 
  1423  0008                     	;# 
  1424  0009                     	;# 
  1425  000A                     	;# 
  1426  000B                     	;# 
  1427  000C                     	;# 
  1428  000D                     	;# 
  1429  000E                     	;# 
  1430  0010                     	;# 
  1431  0012                     	;# 
  1432  0013                     	;# 
  1433  0014                     	;# 
  1434  0018                     	;# 
  1435  0019                     	;# 
  1436  001A                     	;# 
  1437  001F                     	;# 
  1438  008C                     	;# 
  1439  008C                     	;# 
  1440  008D                     	;# 
  1441  008E                     	;# 
  1442  008E                     	;# 
  1443  008F                     	;# 
  1444  0090                     	;# 
  1445  0090                     	;# 
  1446  0091                     	;# 
  1447  0092                     	;# 
  1448  0092                     	;# 
  1449  0093                     	;# 
  1450  0094                     	;# 
  1451  0094                     	;# 
  1452  0095                     	;# 
  1453  0096                     	;# 
  1454  0096                     	;# 
  1455  0097                     	;# 
  1456  0098                     	;# 
  1457  0099                     	;# 
  1458  009A                     	;# 
  1459  009B                     	;# 
  1460  009B                     	;# 
  1461  009C                     	;# 
  1462  009D                     	;# 
  1463  009D                     	;# 
  1464  009E                     	;# 
  1465  009F                     	;# 
  1466  010C                     	;# 
  1467  010C                     	;# 
  1468  010D                     	;# 
  1469  010E                     	;# 
  1470  010F                     	;# 
  1471  010F                     	;# 
  1472  0110                     	;# 
  1473  0111                     	;# 
  1474  0112                     	;# 
  1475  0113                     	;# 
  1476  0114                     	;# 
  1477  0115                     	;# 
  1478  0116                     	;# 
  1479  0117                     	;# 
  1480  0118                     	;# 
  1481  0119                     	;# 
  1482  0119                     	;# 
  1483  0119                     	;# 
  1484  011A                     	;# 
  1485  011A                     	;# 
  1486  011A                     	;# 
  1487  011B                     	;# 
  1488  011B                     	;# 
  1489  011B                     	;# 
  1490  011B                     	;# 
  1491  011B                     	;# 
  1492  011C                     	;# 
  1493  011C                     	;# 
  1494  011C                     	;# 
  1495  011D                     	;# 
  1496  011D                     	;# 
  1497  011D                     	;# 
  1498  011E                     	;# 
  1499  011E                     	;# 
  1500  011E                     	;# 
  1501  011F                     	;# 
  1502  011F                     	;# 
  1503  011F                     	;# 
  1504  011F                     	;# 
  1505  011F                     	;# 
  1506  018C                     	;# 
  1507  018D                     	;# 
  1508  018E                     	;# 
  1509  018F                     	;# 
  1510  0190                     	;# 
  1511  0191                     	;# 
  1512  0192                     	;# 
  1513  020C                     	;# 
  1514  020C                     	;# 
  1515  020D                     	;# 
  1516  020E                     	;# 
  1517  020F                     	;# 
  1518  020F                     	;# 
  1519  0210                     	;# 
  1520  0210                     	;# 
  1521  0211                     	;# 
  1522  0211                     	;# 
  1523  021E                     	;# 
  1524  028C                     	;# 
  1525  028C                     	;# 
  1526  028D                     	;# 
  1527  028D                     	;# 
  1528  028E                     	;# 
  1529  028F                     	;# 
  1530  0290                     	;# 
  1531  0290                     	;# 
  1532  0291                     	;# 
  1533  0292                     	;# 
  1534  0292                     	;# 
  1535  0293                     	;# 
  1536  0293                     	;# 
  1537  0294                     	;# 
  1538  0295                     	;# 
  1539  0296                     	;# 
  1540  0296                     	;# 
  1541  0297                     	;# 
  1542  030C                     	;# 
  1543  030C                     	;# 
  1544  030D                     	;# 
  1545  030E                     	;# 
  1546  030F                     	;# 
  1547  0310                     	;# 
  1548  0310                     	;# 
  1549  0311                     	;# 
  1550  0312                     	;# 
  1551  0313                     	;# 
  1552  0314                     	;# 
  1553  0314                     	;# 
  1554  0315                     	;# 
  1555  0316                     	;# 
  1556  0318                     	;# 
  1557  0318                     	;# 
  1558  0319                     	;# 
  1559  031A                     	;# 
  1560  040D                     	;# 
  1561  048C                     	;# 
  1562  048C                     	;# 
  1563  048D                     	;# 
  1564  048E                     	;# 
  1565  048F                     	;# 
  1566  048F                     	;# 
  1567  0490                     	;# 
  1568  0491                     	;# 
  1569  0492                     	;# 
  1570  0492                     	;# 
  1571  0493                     	;# 
  1572  0494                     	;# 
  1573  0495                     	;# 
  1574  0495                     	;# 
  1575  0496                     	;# 
  1576  0497                     	;# 
  1577  0498                     	;# 
  1578  0499                     	;# 
  1579  049A                     	;# 
  1580  049B                     	;# 
  1581  049C                     	;# 
  1582  049D                     	;# 
  1583  059C                     	;# 
  1584  059C                     	;# 
  1585  059D                     	;# 
  1586  059D                     	;# 
  1587  059E                     	;# 
  1588  059F                     	;# 
  1589  060C                     	;# 
  1590  060D                     	;# 
  1591  060E                     	;# 
  1592  060F                     	;# 
  1593  0610                     	;# 
  1594  0611                     	;# 
  1595  0612                     	;# 
  1596  0613                     	;# 
  1597  0614                     	;# 
  1598  070C                     	;# 
  1599  070D                     	;# 
  1600  070E                     	;# 
  1601  070F                     	;# 
  1602  0710                     	;# 
  1603  0711                     	;# 
  1604  0712                     	;# 
  1605  0713                     	;# 
  1606  0714                     	;# 
  1607  0716                     	;# 
  1608  0717                     	;# 
  1609  0718                     	;# 
  1610  0719                     	;# 
  1611  071A                     	;# 
  1612  071B                     	;# 
  1613  071C                     	;# 
  1614  071D                     	;# 
  1615  071E                     	;# 
  1616  0796                     	;# 
  1617  0797                     	;# 
  1618  0798                     	;# 
  1619  0799                     	;# 
  1620  079A                     	;# 
  1621  079B                     	;# 
  1622  080C                     	;# 
  1623  080D                     	;# 
  1624  080E                     	;# 
  1625  080F                     	;# 
  1626  0810                     	;# 
  1627  0811                     	;# 
  1628  0813                     	;# 
  1629  0814                     	;# 
  1630  081A                     	;# 
  1631  081B                     	;# 
  1632  081C                     	;# 
  1633  081D                     	;# 
  1634  081E                     	;# 
  1635  081F                     	;# 
  1636  088C                     	;# 
  1637  088D                     	;# 
  1638  088E                     	;# 
  1639  088F                     	;# 
  1640  0890                     	;# 
  1641  0891                     	;# 
  1642  0892                     	;# 
  1643  0893                     	;# 
  1644  0894                     	;# 
  1645  090C                     	;# 
  1646  090E                     	;# 
  1647  090F                     	;# 
  1648  091F                     	;# 
  1649  098F                     	;# 
  1650  098F                     	;# 
  1651  0990                     	;# 
  1652  0991                     	;# 
  1653  0992                     	;# 
  1654  0993                     	;# 
  1655  0994                     	;# 
  1656  0995                     	;# 
  1657  0996                     	;# 
  1658  0997                     	;# 
  1659  0A19                     	;# 
  1660  0A19                     	;# 
  1661  0A1A                     	;# 
  1662  0A1A                     	;# 
  1663  0A1B                     	;# 
  1664  0A1B                     	;# 
  1665  0A1B                     	;# 
  1666  0A1C                     	;# 
  1667  0A1C                     	;# 
  1668  0A1D                     	;# 
  1669  0A1D                     	;# 
  1670  0A1E                     	;# 
  1671  0A1E                     	;# 
  1672  0A1F                     	;# 
  1673  0A1F                     	;# 
  1674  0A1F                     	;# 
  1675  0C0C                     	;# 
  1676  0C0D                     	;# 
  1677  0C0E                     	;# 
  1678  0C0F                     	;# 
  1679  0C10                     	;# 
  1680  0C11                     	;# 
  1681  0C12                     	;# 
  1682  0C13                     	;# 
  1683  0C14                     	;# 
  1684  0C15                     	;# 
  1685  0C16                     	;# 
  1686  0C17                     	;# 
  1687  0C18                     	;# 
  1688  0C19                     	;# 
  1689  0C1A                     	;# 
  1690  0C1B                     	;# 
  1691  0C1C                     	;# 
  1692  0E8C                     	;# 
  1693  0E8D                     	;# 
  1694  0E8E                     	;# 
  1695  0E8F                     	;# 
  1696  1D0C                     	;# 
  1697  1D0D                     	;# 
  1698  1D0E                     	;# 
  1699  1D0F                     	;# 
  1700  1D10                     	;# 
  1701  1D11                     	;# 
  1702  1D12                     	;# 
  1703  1D13                     	;# 
  1704  1D14                     	;# 
  1705  1D15                     	;# 
  1706  1D16                     	;# 
  1707  1D17                     	;# 
  1708  1D18                     	;# 
  1709  1D19                     	;# 
  1710  1D1A                     	;# 
  1711  1D1E                     	;# 
  1712  1D1F                     	;# 
  1713  1D20                     	;# 
  1714  1D24                     	;# 
  1715  1D25                     	;# 
  1716  1D26                     	;# 
  1717  1D2A                     	;# 
  1718  1D2B                     	;# 
  1719  1D2C                     	;# 
  1720  1D30                     	;# 
  1721  1D31                     	;# 
  1722  1D32                     	;# 
  1723  1D36                     	;# 
  1724  1D37                     	;# 
  1725  1D38                     	;# 
  1726  1D3C                     	;# 
  1727  1D3D                     	;# 
  1728  1D3E                     	;# 
  1729  1D42                     	;# 
  1730  1D43                     	;# 
  1731  1D44                     	;# 
  1732  1E0F                     	;# 
  1733  1E10                     	;# 
  1734  1E11                     	;# 
  1735  1E12                     	;# 
  1736  1E13                     	;# 
  1737  1E14                     	;# 
  1738  1E15                     	;# 
  1739  1E16                     	;# 
  1740  1E17                     	;# 
  1741  1E18                     	;# 
  1742  1E19                     	;# 
  1743  1E1A                     	;# 
  1744  1E1B                     	;# 
  1745  1E1C                     	;# 
  1746  1E1D                     	;# 
  1747  1E1E                     	;# 
  1748  1E1F                     	;# 
  1749  1E20                     	;# 
  1750  1E21                     	;# 
  1751  1E22                     	;# 
  1752  1E23                     	;# 
  1753  1E24                     	;# 
  1754  1E25                     	;# 
  1755  1E26                     	;# 
  1756  1E27                     	;# 
  1757  1E28                     	;# 
  1758  1E29                     	;# 
  1759  1E2A                     	;# 
  1760  1E2B                     	;# 
  1761  1E2C                     	;# 
  1762  1E2D                     	;# 
  1763  1E2E                     	;# 
  1764  1E2F                     	;# 
  1765  1E30                     	;# 
  1766  1E31                     	;# 
  1767  1E32                     	;# 
  1768  1E33                     	;# 
  1769  1E34                     	;# 
  1770  1E35                     	;# 
  1771  1E36                     	;# 
  1772  1E37                     	;# 
  1773  1E8F                     	;# 
  1774  1E90                     	;# 
  1775  1E91                     	;# 
  1776  1E92                     	;# 
  1777  1E93                     	;# 
  1778  1E9C                     	;# 
  1779  1E9D                     	;# 
  1780  1EA1                     	;# 
  1781  1EA2                     	;# 
  1782  1EA9                     	;# 
  1783  1EAA                     	;# 
  1784  1EB1                     	;# 
  1785  1EBB                     	;# 
  1786  1EBC                     	;# 
  1787  1EBD                     	;# 
  1788  1EBE                     	;# 
  1789  1EC3                     	;# 
  1790  1EC5                     	;# 
  1791  1EC6                     	;# 
  1792  1EC7                     	;# 
  1793  1ECB                     	;# 
  1794  1ECC                     	;# 
  1795  1ECD                     	;# 
  1796  1ECE                     	;# 
  1797  1F10                     	;# 
  1798  1F11                     	;# 
  1799  1F12                     	;# 
  1800  1F13                     	;# 
  1801  1F14                     	;# 
  1802  1F15                     	;# 
  1803  1F16                     	;# 
  1804  1F17                     	;# 
  1805  1F18                     	;# 
  1806  1F19                     	;# 
  1807  1F1A                     	;# 
  1808  1F1B                     	;# 
  1809  1F1C                     	;# 
  1810  1F1D                     	;# 
  1811  1F1E                     	;# 
  1812  1F1F                     	;# 
  1813  1F20                     	;# 
  1814  1F21                     	;# 
  1815  1F22                     	;# 
  1816  1F23                     	;# 
  1817  1F24                     	;# 
  1818  1F26                     	;# 
  1819  1F27                     	;# 
  1820  1F38                     	;# 
  1821  1F39                     	;# 
  1822  1F3A                     	;# 
  1823  1F3B                     	;# 
  1824  1F3C                     	;# 
  1825  1F3D                     	;# 
  1826  1F3E                     	;# 
  1827  1F3F                     	;# 
  1828  1F43                     	;# 
  1829  1F44                     	;# 
  1830  1F45                     	;# 
  1831  1F46                     	;# 
  1832  1F47                     	;# 
  1833  1F48                     	;# 
  1834  1F49                     	;# 
  1835  1F4A                     	;# 
  1836  1F4E                     	;# 
  1837  1F4F                     	;# 
  1838  1F50                     	;# 
  1839  1F51                     	;# 
  1840  1F52                     	;# 
  1841  1F53                     	;# 
  1842  1F54                     	;# 
  1843  1F55                     	;# 
  1844  1F65                     	;# 
  1845  1F68                     	;# 
  1846  1F69                     	;# 
  1847  1F6A                     	;# 
  1848  1F6B                     	;# 
  1849  1FE4                     	;# 
  1850  1FE5                     	;# 
  1851  1FE6                     	;# 
  1852  1FE7                     	;# 
  1853  1FE8                     	;# 
  1854  1FE9                     	;# 
  1855  1FEA                     	;# 
  1856  1FEB                     	;# 
  1857  1FED                     	;# 
  1858  1FEE                     	;# 
  1859  1FEF                     	;# 
  1860  0000                     	;# 
  1861  0001                     	;# 
  1862  0002                     	;# 
  1863  0003                     	;# 
  1864  0004                     	;# 
  1865  0005                     	;# 
  1866  0006                     	;# 
  1867  0007                     	;# 
  1868  0008                     	;# 
  1869  0009                     	;# 
  1870  000A                     	;# 
  1871  000B                     	;# 
  1872  000C                     	;# 
  1873  000D                     	;# 
  1874  000E                     	;# 
  1875  0010                     	;# 
  1876  0012                     	;# 
  1877  0013                     	;# 
  1878  0014                     	;# 
  1879  0018                     	;# 
  1880  0019                     	;# 
  1881  001A                     	;# 
  1882  001F                     	;# 
  1883  008C                     	;# 
  1884  008C                     	;# 
  1885  008D                     	;# 
  1886  008E                     	;# 
  1887  008E                     	;# 
  1888  008F                     	;# 
  1889  0090                     	;# 
  1890  0090                     	;# 
  1891  0091                     	;# 
  1892  0092                     	;# 
  1893  0092                     	;# 
  1894  0093                     	;# 
  1895  0094                     	;# 
  1896  0094                     	;# 
  1897  0095                     	;# 
  1898  0096                     	;# 
  1899  0096                     	;# 
  1900  0097                     	;# 
  1901  0098                     	;# 
  1902  0099                     	;# 
  1903  009A                     	;# 
  1904  009B                     	;# 
  1905  009B                     	;# 
  1906  009C                     	;# 
  1907  009D                     	;# 
  1908  009D                     	;# 
  1909  009E                     	;# 
  1910  009F                     	;# 
  1911  010C                     	;# 
  1912  010C                     	;# 
  1913  010D                     	;# 
  1914  010E                     	;# 
  1915  010F                     	;# 
  1916  010F                     	;# 
  1917  0110                     	;# 
  1918  0111                     	;# 
  1919  0112                     	;# 
  1920  0113                     	;# 
  1921  0114                     	;# 
  1922  0115                     	;# 
  1923  0116                     	;# 
  1924  0117                     	;# 
  1925  0118                     	;# 
  1926  0119                     	;# 
  1927  0119                     	;# 
  1928  0119                     	;# 
  1929  011A                     	;# 
  1930  011A                     	;# 
  1931  011A                     	;# 
  1932  011B                     	;# 
  1933  011B                     	;# 
  1934  011B                     	;# 
  1935  011B                     	;# 
  1936  011B                     	;# 
  1937  011C                     	;# 
  1938  011C                     	;# 
  1939  011C                     	;# 
  1940  011D                     	;# 
  1941  011D                     	;# 
  1942  011D                     	;# 
  1943  011E                     	;# 
  1944  011E                     	;# 
  1945  011E                     	;# 
  1946  011F                     	;# 
  1947  011F                     	;# 
  1948  011F                     	;# 
  1949  011F                     	;# 
  1950  011F                     	;# 
  1951  018C                     	;# 
  1952  018D                     	;# 
  1953  018E                     	;# 
  1954  018F                     	;# 
  1955  0190                     	;# 
  1956  0191                     	;# 
  1957  0192                     	;# 
  1958  020C                     	;# 
  1959  020C                     	;# 
  1960  020D                     	;# 
  1961  020E                     	;# 
  1962  020F                     	;# 
  1963  020F                     	;# 
  1964  0210                     	;# 
  1965  0210                     	;# 
  1966  0211                     	;# 
  1967  0211                     	;# 
  1968  021E                     	;# 
  1969  028C                     	;# 
  1970  028C                     	;# 
  1971  028D                     	;# 
  1972  028D                     	;# 
  1973  028E                     	;# 
  1974  028F                     	;# 
  1975  0290                     	;# 
  1976  0290                     	;# 
  1977  0291                     	;# 
  1978  0292                     	;# 
  1979  0292                     	;# 
  1980  0293                     	;# 
  1981  0293                     	;# 
  1982  0294                     	;# 
  1983  0295                     	;# 
  1984  0296                     	;# 
  1985  0296                     	;# 
  1986  0297                     	;# 
  1987  030C                     	;# 
  1988  030C                     	;# 
  1989  030D                     	;# 
  1990  030E                     	;# 
  1991  030F                     	;# 
  1992  0310                     	;# 
  1993  0310                     	;# 
  1994  0311                     	;# 
  1995  0312                     	;# 
  1996  0313                     	;# 
  1997  0314                     	;# 
  1998  0314                     	;# 
  1999  0315                     	;# 
  2000  0316                     	;# 
  2001  0318                     	;# 
  2002  0318                     	;# 
  2003  0319                     	;# 
  2004  031A                     	;# 
  2005  040D                     	;# 
  2006  048C                     	;# 
  2007  048C                     	;# 
  2008  048D                     	;# 
  2009  048E                     	;# 
  2010  048F                     	;# 
  2011  048F                     	;# 
  2012  0490                     	;# 
  2013  0491                     	;# 
  2014  0492                     	;# 
  2015  0492                     	;# 
  2016  0493                     	;# 
  2017  0494                     	;# 
  2018  0495                     	;# 
  2019  0495                     	;# 
  2020  0496                     	;# 
  2021  0497                     	;# 
  2022  0498                     	;# 
  2023  0499                     	;# 
  2024  049A                     	;# 
  2025  049B                     	;# 
  2026  049C                     	;# 
  2027  049D                     	;# 
  2028  059C                     	;# 
  2029  059C                     	;# 
  2030  059D                     	;# 
  2031  059D                     	;# 
  2032  059E                     	;# 
  2033  059F                     	;# 
  2034  060C                     	;# 
  2035  060D                     	;# 
  2036  060E                     	;# 
  2037  060F                     	;# 
  2038  0610                     	;# 
  2039  0611                     	;# 
  2040  0612                     	;# 
  2041  0613                     	;# 
  2042  0614                     	;# 
  2043  070C                     	;# 
  2044  070D                     	;# 
  2045  070E                     	;# 
  2046  070F                     	;# 
  2047  0710                     	;# 
  2048  0711                     	;# 
  2049  0712                     	;# 
  2050  0713                     	;# 
  2051  0714                     	;# 
  2052  0716                     	;# 
  2053  0717                     	;# 
  2054  0718                     	;# 
  2055  0719                     	;# 
  2056  071A                     	;# 
  2057  071B                     	;# 
  2058  071C                     	;# 
  2059  071D                     	;# 
  2060  071E                     	;# 
  2061  0796                     	;# 
  2062  0797                     	;# 
  2063  0798                     	;# 
  2064  0799                     	;# 
  2065  079A                     	;# 
  2066  079B                     	;# 
  2067  080C                     	;# 
  2068  080D                     	;# 
  2069  080E                     	;# 
  2070  080F                     	;# 
  2071  0810                     	;# 
  2072  0811                     	;# 
  2073  0813                     	;# 
  2074  0814                     	;# 
  2075  081A                     	;# 
  2076  081B                     	;# 
  2077  081C                     	;# 
  2078  081D                     	;# 
  2079  081E                     	;# 
  2080  081F                     	;# 
  2081  088C                     	;# 
  2082  088D                     	;# 
  2083  088E                     	;# 
  2084  088F                     	;# 
  2085  0890                     	;# 
  2086  0891                     	;# 
  2087  0892                     	;# 
  2088  0893                     	;# 
  2089  0894                     	;# 
  2090  090C                     	;# 
  2091  090E                     	;# 
  2092  090F                     	;# 
  2093  091F                     	;# 
  2094  098F                     	;# 
  2095  098F                     	;# 
  2096  0990                     	;# 
  2097  0991                     	;# 
  2098  0992                     	;# 
  2099  0993                     	;# 
  2100  0994                     	;# 
  2101  0995                     	;# 
  2102  0996                     	;# 
  2103  0997                     	;# 
  2104  0A19                     	;# 
  2105  0A19                     	;# 
  2106  0A1A                     	;# 
  2107  0A1A                     	;# 
  2108  0A1B                     	;# 
  2109  0A1B                     	;# 
  2110  0A1B                     	;# 
  2111  0A1C                     	;# 
  2112  0A1C                     	;# 
  2113  0A1D                     	;# 
  2114  0A1D                     	;# 
  2115  0A1E                     	;# 
  2116  0A1E                     	;# 
  2117  0A1F                     	;# 
  2118  0A1F                     	;# 
  2119  0A1F                     	;# 
  2120  0C0C                     	;# 
  2121  0C0D                     	;# 
  2122  0C0E                     	;# 
  2123  0C0F                     	;# 
  2124  0C10                     	;# 
  2125  0C11                     	;# 
  2126  0C12                     	;# 
  2127  0C13                     	;# 
  2128  0C14                     	;# 
  2129  0C15                     	;# 
  2130  0C16                     	;# 
  2131  0C17                     	;# 
  2132  0C18                     	;# 
  2133  0C19                     	;# 
  2134  0C1A                     	;# 
  2135  0C1B                     	;# 
  2136  0C1C                     	;# 
  2137  0E8C                     	;# 
  2138  0E8D                     	;# 
  2139  0E8E                     	;# 
  2140  0E8F                     	;# 
  2141  1D0C                     	;# 
  2142  1D0D                     	;# 
  2143  1D0E                     	;# 
  2144  1D0F                     	;# 
  2145  1D10                     	;# 
  2146  1D11                     	;# 
  2147  1D12                     	;# 
  2148  1D13                     	;# 
  2149  1D14                     	;# 
  2150  1D15                     	;# 
  2151  1D16                     	;# 
  2152  1D17                     	;# 
  2153  1D18                     	;# 
  2154  1D19                     	;# 
  2155  1D1A                     	;# 
  2156  1D1E                     	;# 
  2157  1D1F                     	;# 
  2158  1D20                     	;# 
  2159  1D24                     	;# 
  2160  1D25                     	;# 
  2161  1D26                     	;# 
  2162  1D2A                     	;# 
  2163  1D2B                     	;# 
  2164  1D2C                     	;# 
  2165  1D30                     	;# 
  2166  1D31                     	;# 
  2167  1D32                     	;# 
  2168  1D36                     	;# 
  2169  1D37                     	;# 
  2170  1D38                     	;# 
  2171  1D3C                     	;# 
  2172  1D3D                     	;# 
  2173  1D3E                     	;# 
  2174  1D42                     	;# 
  2175  1D43                     	;# 
  2176  1D44                     	;# 
  2177  1E0F                     	;# 
  2178  1E10                     	;# 
  2179  1E11                     	;# 
  2180  1E12                     	;# 
  2181  1E13                     	;# 
  2182  1E14                     	;# 
  2183  1E15                     	;# 
  2184  1E16                     	;# 
  2185  1E17                     	;# 
  2186  1E18                     	;# 
  2187  1E19                     	;# 
  2188  1E1A                     	;# 
  2189  1E1B                     	;# 
  2190  1E1C                     	;# 
  2191  1E1D                     	;# 
  2192  1E1E                     	;# 
  2193  1E1F                     	;# 
  2194  1E20                     	;# 
  2195  1E21                     	;# 
  2196  1E22                     	;# 
  2197  1E23                     	;# 
  2198  1E24                     	;# 
  2199  1E25                     	;# 
  2200  1E26                     	;# 
  2201  1E27                     	;# 
  2202  1E28                     	;# 
  2203  1E29                     	;# 
  2204  1E2A                     	;# 
  2205  1E2B                     	;# 
  2206  1E2C                     	;# 
  2207  1E2D                     	;# 
  2208  1E2E                     	;# 
  2209  1E2F                     	;# 
  2210  1E30                     	;# 
  2211  1E31                     	;# 
  2212  1E32                     	;# 
  2213  1E33                     	;# 
  2214  1E34                     	;# 
  2215  1E35                     	;# 
  2216  1E36                     	;# 
  2217  1E37                     	;# 
  2218  1E8F                     	;# 
  2219  1E90                     	;# 
  2220  1E91                     	;# 
  2221  1E92                     	;# 
  2222  1E93                     	;# 
  2223  1E9C                     	;# 
  2224  1E9D                     	;# 
  2225  1EA1                     	;# 
  2226  1EA2                     	;# 
  2227  1EA9                     	;# 
  2228  1EAA                     	;# 
  2229  1EB1                     	;# 
  2230  1EBB                     	;# 
  2231  1EBC                     	;# 
  2232  1EBD                     	;# 
  2233  1EBE                     	;# 
  2234  1EC3                     	;# 
  2235  1EC5                     	;# 
  2236  1EC6                     	;# 
  2237  1EC7                     	;# 
  2238  1ECB                     	;# 
  2239  1ECC                     	;# 
  2240  1ECD                     	;# 
  2241  1ECE                     	;# 
  2242  1F10                     	;# 
  2243  1F11                     	;# 
  2244  1F12                     	;# 
  2245  1F13                     	;# 
  2246  1F14                     	;# 
  2247  1F15                     	;# 
  2248  1F16                     	;# 
  2249  1F17                     	;# 
  2250  1F18                     	;# 
  2251  1F19                     	;# 
  2252  1F1A                     	;# 
  2253  1F1B                     	;# 
  2254  1F1C                     	;# 
  2255  1F1D                     	;# 
  2256  1F1E                     	;# 
  2257  1F1F                     	;# 
  2258  1F20                     	;# 
  2259  1F21                     	;# 
  2260  1F22                     	;# 
  2261  1F23                     	;# 
  2262  1F24                     	;# 
  2263  1F26                     	;# 
  2264  1F27                     	;# 
  2265  1F38                     	;# 
  2266  1F39                     	;# 
  2267  1F3A                     	;# 
  2268  1F3B                     	;# 
  2269  1F3C                     	;# 
  2270  1F3D                     	;# 
  2271  1F3E                     	;# 
  2272  1F3F                     	;# 
  2273  1F43                     	;# 
  2274  1F44                     	;# 
  2275  1F45                     	;# 
  2276  1F46                     	;# 
  2277  1F47                     	;# 
  2278  1F48                     	;# 
  2279  1F49                     	;# 
  2280  1F4A                     	;# 
  2281  1F4E                     	;# 
  2282  1F4F                     	;# 
  2283  1F50                     	;# 
  2284  1F51                     	;# 
  2285  1F52                     	;# 
  2286  1F53                     	;# 
  2287  1F54                     	;# 
  2288  1F55                     	;# 
  2289  1F65                     	;# 
  2290  1F68                     	;# 
  2291  1F69                     	;# 
  2292  1F6A                     	;# 
  2293  1F6B                     	;# 
  2294  1FE4                     	;# 
  2295  1FE5                     	;# 
  2296  1FE6                     	;# 
  2297  1FE7                     	;# 
  2298  1FE8                     	;# 
  2299  1FE9                     	;# 
  2300  1FEA                     	;# 
  2301  1FEB                     	;# 
  2302  1FED                     	;# 
  2303  1FEE                     	;# 
  2304  1FEF                     	;# 
  2305  0000                     	;# 
  2306  0001                     	;# 
  2307  0002                     	;# 
  2308  0003                     	;# 
  2309  0004                     	;# 
  2310  0005                     	;# 
  2311  0006                     	;# 
  2312  0007                     	;# 
  2313  0008                     	;# 
  2314  0009                     	;# 
  2315  000A                     	;# 
  2316  000B                     	;# 
  2317  000C                     	;# 
  2318  000D                     	;# 
  2319  000E                     	;# 
  2320  0010                     	;# 
  2321  0012                     	;# 
  2322  0013                     	;# 
  2323  0014                     	;# 
  2324  0018                     	;# 
  2325  0019                     	;# 
  2326  001A                     	;# 
  2327  001F                     	;# 
  2328  008C                     	;# 
  2329  008C                     	;# 
  2330  008D                     	;# 
  2331  008E                     	;# 
  2332  008E                     	;# 
  2333  008F                     	;# 
  2334  0090                     	;# 
  2335  0090                     	;# 
  2336  0091                     	;# 
  2337  0092                     	;# 
  2338  0092                     	;# 
  2339  0093                     	;# 
  2340  0094                     	;# 
  2341  0094                     	;# 
  2342  0095                     	;# 
  2343  0096                     	;# 
  2344  0096                     	;# 
  2345  0097                     	;# 
  2346  0098                     	;# 
  2347  0099                     	;# 
  2348  009A                     	;# 
  2349  009B                     	;# 
  2350  009B                     	;# 
  2351  009C                     	;# 
  2352  009D                     	;# 
  2353  009D                     	;# 
  2354  009E                     	;# 
  2355  009F                     	;# 
  2356  010C                     	;# 
  2357  010C                     	;# 
  2358  010D                     	;# 
  2359  010E                     	;# 
  2360  010F                     	;# 
  2361  010F                     	;# 
  2362  0110                     	;# 
  2363  0111                     	;# 
  2364  0112                     	;# 
  2365  0113                     	;# 
  2366  0114                     	;# 
  2367  0115                     	;# 
  2368  0116                     	;# 
  2369  0117                     	;# 
  2370  0118                     	;# 
  2371  0119                     	;# 
  2372  0119                     	;# 
  2373  0119                     	;# 
  2374  011A                     	;# 
  2375  011A                     	;# 
  2376  011A                     	;# 
  2377  011B                     	;# 
  2378  011B                     	;# 
  2379  011B                     	;# 
  2380  011B                     	;# 
  2381  011B                     	;# 
  2382  011C                     	;# 
  2383  011C                     	;# 
  2384  011C                     	;# 
  2385  011D                     	;# 
  2386  011D                     	;# 
  2387  011D                     	;# 
  2388  011E                     	;# 
  2389  011E                     	;# 
  2390  011E                     	;# 
  2391  011F                     	;# 
  2392  011F                     	;# 
  2393  011F                     	;# 
  2394  011F                     	;# 
  2395  011F                     	;# 
  2396  018C                     	;# 
  2397  018D                     	;# 
  2398  018E                     	;# 
  2399  018F                     	;# 
  2400  0190                     	;# 
  2401  0191                     	;# 
  2402  0192                     	;# 
  2403  020C                     	;# 
  2404  020C                     	;# 
  2405  020D                     	;# 
  2406  020E                     	;# 
  2407  020F                     	;# 
  2408  020F                     	;# 
  2409  0210                     	;# 
  2410  0210                     	;# 
  2411  0211                     	;# 
  2412  0211                     	;# 
  2413  021E                     	;# 
  2414  028C                     	;# 
  2415  028C                     	;# 
  2416  028D                     	;# 
  2417  028D                     	;# 
  2418  028E                     	;# 
  2419  028F                     	;# 
  2420  0290                     	;# 
  2421  0290                     	;# 
  2422  0291                     	;# 
  2423  0292                     	;# 
  2424  0292                     	;# 
  2425  0293                     	;# 
  2426  0293                     	;# 
  2427  0294                     	;# 
  2428  0295                     	;# 
  2429  0296                     	;# 
  2430  0296                     	;# 
  2431  0297                     	;# 
  2432  030C                     	;# 
  2433  030C                     	;# 
  2434  030D                     	;# 
  2435  030E                     	;# 
  2436  030F                     	;# 
  2437  0310                     	;# 
  2438  0310                     	;# 
  2439  0311                     	;# 
  2440  0312                     	;# 
  2441  0313                     	;# 
  2442  0314                     	;# 
  2443  0314                     	;# 
  2444  0315                     	;# 
  2445  0316                     	;# 
  2446  0318                     	;# 
  2447  0318                     	;# 
  2448  0319                     	;# 
  2449  031A                     	;# 
  2450  040D                     	;# 
  2451  048C                     	;# 
  2452  048C                     	;# 
  2453  048D                     	;# 
  2454  048E                     	;# 
  2455  048F                     	;# 
  2456  048F                     	;# 
  2457  0490                     	;# 
  2458  0491                     	;# 
  2459  0492                     	;# 
  2460  0492                     	;# 
  2461  0493                     	;# 
  2462  0494                     	;# 
  2463  0495                     	;# 
  2464  0495                     	;# 
  2465  0496                     	;# 
  2466  0497                     	;# 
  2467  0498                     	;# 
  2468  0499                     	;# 
  2469  049A                     	;# 
  2470  049B                     	;# 
  2471  049C                     	;# 
  2472  049D                     	;# 
  2473  059C                     	;# 
  2474  059C                     	;# 
  2475  059D                     	;# 
  2476  059D                     	;# 
  2477  059E                     	;# 
  2478  059F                     	;# 
  2479  060C                     	;# 
  2480  060D                     	;# 
  2481  060E                     	;# 
  2482  060F                     	;# 
  2483  0610                     	;# 
  2484  0611                     	;# 
  2485  0612                     	;# 
  2486  0613                     	;# 
  2487  0614                     	;# 
  2488  070C                     	;# 
  2489  070D                     	;# 
  2490  070E                     	;# 
  2491  070F                     	;# 
  2492  0710                     	;# 
  2493  0711                     	;# 
  2494  0712                     	;# 
  2495  0713                     	;# 
  2496  0714                     	;# 
  2497  0716                     	;# 
  2498  0717                     	;# 
  2499  0718                     	;# 
  2500  0719                     	;# 
  2501  071A                     	;# 
  2502  071B                     	;# 
  2503  071C                     	;# 
  2504  071D                     	;# 
  2505  071E                     	;# 
  2506  0796                     	;# 
  2507  0797                     	;# 
  2508  0798                     	;# 
  2509  0799                     	;# 
  2510  079A                     	;# 
  2511  079B                     	;# 
  2512  080C                     	;# 
  2513  080D                     	;# 
  2514  080E                     	;# 
  2515  080F                     	;# 
  2516  0810                     	;# 
  2517  0811                     	;# 
  2518  0813                     	;# 
  2519  0814                     	;# 
  2520  081A                     	;# 
  2521  081B                     	;# 
  2522  081C                     	;# 
  2523  081D                     	;# 
  2524  081E                     	;# 
  2525  081F                     	;# 
  2526  088C                     	;# 
  2527  088D                     	;# 
  2528  088E                     	;# 
  2529  088F                     	;# 
  2530  0890                     	;# 
  2531  0891                     	;# 
  2532  0892                     	;# 
  2533  0893                     	;# 
  2534  0894                     	;# 
  2535  090C                     	;# 
  2536  090E                     	;# 
  2537  090F                     	;# 
  2538  091F                     	;# 
  2539  098F                     	;# 
  2540  098F                     	;# 
  2541  0990                     	;# 
  2542  0991                     	;# 
  2543  0992                     	;# 
  2544  0993                     	;# 
  2545  0994                     	;# 
  2546  0995                     	;# 
  2547  0996                     	;# 
  2548  0997                     	;# 
  2549  0A19                     	;# 
  2550  0A19                     	;# 
  2551  0A1A                     	;# 
  2552  0A1A                     	;# 
  2553  0A1B                     	;# 
  2554  0A1B                     	;# 
  2555  0A1B                     	;# 
  2556  0A1C                     	;# 
  2557  0A1C                     	;# 
  2558  0A1D                     	;# 
  2559  0A1D                     	;# 
  2560  0A1E                     	;# 
  2561  0A1E                     	;# 
  2562  0A1F                     	;# 
  2563  0A1F                     	;# 
  2564  0A1F                     	;# 
  2565  0C0C                     	;# 
  2566  0C0D                     	;# 
  2567  0C0E                     	;# 
  2568  0C0F                     	;# 
  2569  0C10                     	;# 
  2570  0C11                     	;# 
  2571  0C12                     	;# 
  2572  0C13                     	;# 
  2573  0C14                     	;# 
  2574  0C15                     	;# 
  2575  0C16                     	;# 
  2576  0C17                     	;# 
  2577  0C18                     	;# 
  2578  0C19                     	;# 
  2579  0C1A                     	;# 
  2580  0C1B                     	;# 
  2581  0C1C                     	;# 
  2582  0E8C                     	;# 
  2583  0E8D                     	;# 
  2584  0E8E                     	;# 
  2585  0E8F                     	;# 
  2586  1D0C                     	;# 
  2587  1D0D                     	;# 
  2588  1D0E                     	;# 
  2589  1D0F                     	;# 
  2590  1D10                     	;# 
  2591  1D11                     	;# 
  2592  1D12                     	;# 
  2593  1D13                     	;# 
  2594  1D14                     	;# 
  2595  1D15                     	;# 
  2596  1D16                     	;# 
  2597  1D17                     	;# 
  2598  1D18                     	;# 
  2599  1D19                     	;# 
  2600  1D1A                     	;# 
  2601  1D1E                     	;# 
  2602  1D1F                     	;# 
  2603  1D20                     	;# 
  2604  1D24                     	;# 
  2605  1D25                     	;# 
  2606  1D26                     	;# 
  2607  1D2A                     	;# 
  2608  1D2B                     	;# 
  2609  1D2C                     	;# 
  2610  1D30                     	;# 
  2611  1D31                     	;# 
  2612  1D32                     	;# 
  2613  1D36                     	;# 
  2614  1D37                     	;# 
  2615  1D38                     	;# 
  2616  1D3C                     	;# 
  2617  1D3D                     	;# 
  2618  1D3E                     	;# 
  2619  1D42                     	;# 
  2620  1D43                     	;# 
  2621  1D44                     	;# 
  2622  1E0F                     	;# 
  2623  1E10                     	;# 
  2624  1E11                     	;# 
  2625  1E12                     	;# 
  2626  1E13                     	;# 
  2627  1E14                     	;# 
  2628  1E15                     	;# 
  2629  1E16                     	;# 
  2630  1E17                     	;# 
  2631  1E18                     	;# 
  2632  1E19                     	;# 
  2633  1E1A                     	;# 
  2634  1E1B                     	;# 
  2635  1E1C                     	;# 
  2636  1E1D                     	;# 
  2637  1E1E                     	;# 
  2638  1E1F                     	;# 
  2639  1E20                     	;# 
  2640  1E21                     	;# 
  2641  1E22                     	;# 
  2642  1E23                     	;# 
  2643  1E24                     	;# 
  2644  1E25                     	;# 
  2645  1E26                     	;# 
  2646  1E27                     	;# 
  2647  1E28                     	;# 
  2648  1E29                     	;# 
  2649  1E2A                     	;# 
  2650  1E2B                     	;# 
  2651  1E2C                     	;# 
  2652  1E2D                     	;# 
  2653  1E2E                     	;# 
  2654  1E2F                     	;# 
  2655  1E30                     	;# 
  2656  1E31                     	;# 
  2657  1E32                     	;# 
  2658  1E33                     	;# 
  2659  1E34                     	;# 
  2660  1E35                     	;# 
  2661  1E36                     	;# 
  2662  1E37                     	;# 
  2663  1E8F                     	;# 
  2664  1E90                     	;# 
  2665  1E91                     	;# 
  2666  1E92                     	;# 
  2667  1E93                     	;# 
  2668  1E9C                     	;# 
  2669  1E9D                     	;# 
  2670  1EA1                     	;# 
  2671  1EA2                     	;# 
  2672  1EA9                     	;# 
  2673  1EAA                     	;# 
  2674  1EB1                     	;# 
  2675  1EBB                     	;# 
  2676  1EBC                     	;# 
  2677  1EBD                     	;# 
  2678  1EBE                     	;# 
  2679  1EC3                     	;# 
  2680  1EC5                     	;# 
  2681  1EC6                     	;# 
  2682  1EC7                     	;# 
  2683  1ECB                     	;# 
  2684  1ECC                     	;# 
  2685  1ECD                     	;# 
  2686  1ECE                     	;# 
  2687  1F10                     	;# 
  2688  1F11                     	;# 
  2689  1F12                     	;# 
  2690  1F13                     	;# 
  2691  1F14                     	;# 
  2692  1F15                     	;# 
  2693  1F16                     	;# 
  2694  1F17                     	;# 
  2695  1F18                     	;# 
  2696  1F19                     	;# 
  2697  1F1A                     	;# 
  2698  1F1B                     	;# 
  2699  1F1C                     	;# 
  2700  1F1D                     	;# 
  2701  1F1E                     	;# 
  2702  1F1F                     	;# 
  2703  1F20                     	;# 
  2704  1F21                     	;# 
  2705  1F22                     	;# 
  2706  1F23                     	;# 
  2707  1F24                     	;# 
  2708  1F26                     	;# 
  2709  1F27                     	;# 
  2710  1F38                     	;# 
  2711  1F39                     	;# 
  2712  1F3A                     	;# 
  2713  1F3B                     	;# 
  2714  1F3C                     	;# 
  2715  1F3D                     	;# 
  2716  1F3E                     	;# 
  2717  1F3F                     	;# 
  2718  1F43                     	;# 
  2719  1F44                     	;# 
  2720  1F45                     	;# 
  2721  1F46                     	;# 
  2722  1F47                     	;# 
  2723  1F48                     	;# 
  2724  1F49                     	;# 
  2725  1F4A                     	;# 
  2726  1F4E                     	;# 
  2727  1F4F                     	;# 
  2728  1F50                     	;# 
  2729  1F51                     	;# 
  2730  1F52                     	;# 
  2731  1F53                     	;# 
  2732  1F54                     	;# 
  2733  1F55                     	;# 
  2734  1F65                     	;# 
  2735  1F68                     	;# 
  2736  1F69                     	;# 
  2737  1F6A                     	;# 
  2738  1F6B                     	;# 
  2739  1FE4                     	;# 
  2740  1FE5                     	;# 
  2741  1FE6                     	;# 
  2742  1FE7                     	;# 
  2743  1FE8                     	;# 
  2744  1FE9                     	;# 
  2745  1FEA                     	;# 
  2746  1FEB                     	;# 
  2747  1FED                     	;# 
  2748  1FEE                     	;# 
  2749  1FEF                     	;# 
  2750  0000                     	;# 
  2751  0001                     	;# 
  2752  0002                     	;# 
  2753  0003                     	;# 
  2754  0004                     	;# 
  2755  0005                     	;# 
  2756  0006                     	;# 
  2757  0007                     	;# 
  2758  0008                     	;# 
  2759  0009                     	;# 
  2760  000A                     	;# 
  2761  000B                     	;# 
  2762  000C                     	;# 
  2763  000D                     	;# 
  2764  000E                     	;# 
  2765  0010                     	;# 
  2766  0012                     	;# 
  2767  0013                     	;# 
  2768  0014                     	;# 
  2769  0018                     	;# 
  2770  0019                     	;# 
  2771  001A                     	;# 
  2772  001F                     	;# 
  2773  008C                     	;# 
  2774  008C                     	;# 
  2775  008D                     	;# 
  2776  008E                     	;# 
  2777  008E                     	;# 
  2778  008F                     	;# 
  2779  0090                     	;# 
  2780  0090                     	;# 
  2781  0091                     	;# 
  2782  0092                     	;# 
  2783  0092                     	;# 
  2784  0093                     	;# 
  2785  0094                     	;# 
  2786  0094                     	;# 
  2787  0095                     	;# 
  2788  0096                     	;# 
  2789  0096                     	;# 
  2790  0097                     	;# 
  2791  0098                     	;# 
  2792  0099                     	;# 
  2793  009A                     	;# 
  2794  009B                     	;# 
  2795  009B                     	;# 
  2796  009C                     	;# 
  2797  009D                     	;# 
  2798  009D                     	;# 
  2799  009E                     	;# 
  2800  009F                     	;# 
  2801  010C                     	;# 
  2802  010C                     	;# 
  2803  010D                     	;# 
  2804  010E                     	;# 
  2805  010F                     	;# 
  2806  010F                     	;# 
  2807  0110                     	;# 
  2808  0111                     	;# 
  2809  0112                     	;# 
  2810  0113                     	;# 
  2811  0114                     	;# 
  2812  0115                     	;# 
  2813  0116                     	;# 
  2814  0117                     	;# 
  2815  0118                     	;# 
  2816  0119                     	;# 
  2817  0119                     	;# 
  2818  0119                     	;# 
  2819  011A                     	;# 
  2820  011A                     	;# 
  2821  011A                     	;# 
  2822  011B                     	;# 
  2823  011B                     	;# 
  2824  011B                     	;# 
  2825  011B                     	;# 
  2826  011B                     	;# 
  2827  011C                     	;# 
  2828  011C                     	;# 
  2829  011C                     	;# 
  2830  011D                     	;# 
  2831  011D                     	;# 
  2832  011D                     	;# 
  2833  011E                     	;# 
  2834  011E                     	;# 
  2835  011E                     	;# 
  2836  011F                     	;# 
  2837  011F                     	;# 
  2838  011F                     	;# 
  2839  011F                     	;# 
  2840  011F                     	;# 
  2841  018C                     	;# 
  2842  018D                     	;# 
  2843  018E                     	;# 
  2844  018F                     	;# 
  2845  0190                     	;# 
  2846  0191                     	;# 
  2847  0192                     	;# 
  2848  020C                     	;# 
  2849  020C                     	;# 
  2850  020D                     	;# 
  2851  020E                     	;# 
  2852  020F                     	;# 
  2853  020F                     	;# 
  2854  0210                     	;# 
  2855  0210                     	;# 
  2856  0211                     	;# 
  2857  0211                     	;# 
  2858  021E                     	;# 
  2859  028C                     	;# 
  2860  028C                     	;# 
  2861  028D                     	;# 
  2862  028D                     	;# 
  2863  028E                     	;# 
  2864  028F                     	;# 
  2865  0290                     	;# 
  2866  0290                     	;# 
  2867  0291                     	;# 
  2868  0292                     	;# 
  2869  0292                     	;# 
  2870  0293                     	;# 
  2871  0293                     	;# 
  2872  0294                     	;# 
  2873  0295                     	;# 
  2874  0296                     	;# 
  2875  0296                     	;# 
  2876  0297                     	;# 
  2877  030C                     	;# 
  2878  030C                     	;# 
  2879  030D                     	;# 
  2880  030E                     	;# 
  2881  030F                     	;# 
  2882  0310                     	;# 
  2883  0310                     	;# 
  2884  0311                     	;# 
  2885  0312                     	;# 
  2886  0313                     	;# 
  2887  0314                     	;# 
  2888  0314                     	;# 
  2889  0315                     	;# 
  2890  0316                     	;# 
  2891  0318                     	;# 
  2892  0318                     	;# 
  2893  0319                     	;# 
  2894  031A                     	;# 
  2895  040D                     	;# 
  2896  048C                     	;# 
  2897  048C                     	;# 
  2898  048D                     	;# 
  2899  048E                     	;# 
  2900  048F                     	;# 
  2901  048F                     	;# 
  2902  0490                     	;# 
  2903  0491                     	;# 
  2904  0492                     	;# 
  2905  0492                     	;# 
  2906  0493                     	;# 
  2907  0494                     	;# 
  2908  0495                     	;# 
  2909  0495                     	;# 
  2910  0496                     	;# 
  2911  0497                     	;# 
  2912  0498                     	;# 
  2913  0499                     	;# 
  2914  049A                     	;# 
  2915  049B                     	;# 
  2916  049C                     	;# 
  2917  049D                     	;# 
  2918  059C                     	;# 
  2919  059C                     	;# 
  2920  059D                     	;# 
  2921  059D                     	;# 
  2922  059E                     	;# 
  2923  059F                     	;# 
  2924  060C                     	;# 
  2925  060D                     	;# 
  2926  060E                     	;# 
  2927  060F                     	;# 
  2928  0610                     	;# 
  2929  0611                     	;# 
  2930  0612                     	;# 
  2931  0613                     	;# 
  2932  0614                     	;# 
  2933  070C                     	;# 
  2934  070D                     	;# 
  2935  070E                     	;# 
  2936  070F                     	;# 
  2937  0710                     	;# 
  2938  0711                     	;# 
  2939  0712                     	;# 
  2940  0713                     	;# 
  2941  0714                     	;# 
  2942  0716                     	;# 
  2943  0717                     	;# 
  2944  0718                     	;# 
  2945  0719                     	;# 
  2946  071A                     	;# 
  2947  071B                     	;# 
  2948  071C                     	;# 
  2949  071D                     	;# 
  2950  071E                     	;# 
  2951  0796                     	;# 
  2952  0797                     	;# 
  2953  0798                     	;# 
  2954  0799                     	;# 
  2955  079A                     	;# 
  2956  079B                     	;# 
  2957  080C                     	;# 
  2958  080D                     	;# 
  2959  080E                     	;# 
  2960  080F                     	;# 
  2961  0810                     	;# 
  2962  0811                     	;# 
  2963  0813                     	;# 
  2964  0814                     	;# 
  2965  081A                     	;# 
  2966  081B                     	;# 
  2967  081C                     	;# 
  2968  081D                     	;# 
  2969  081E                     	;# 
  2970  081F                     	;# 
  2971  088C                     	;# 
  2972  088D                     	;# 
  2973  088E                     	;# 
  2974  088F                     	;# 
  2975  0890                     	;# 
  2976  0891                     	;# 
  2977  0892                     	;# 
  2978  0893                     	;# 
  2979  0894                     	;# 
  2980  090C                     	;# 
  2981  090E                     	;# 
  2982  090F                     	;# 
  2983  091F                     	;# 
  2984  098F                     	;# 
  2985  098F                     	;# 
  2986  0990                     	;# 
  2987  0991                     	;# 
  2988  0992                     	;# 
  2989  0993                     	;# 
  2990  0994                     	;# 
  2991  0995                     	;# 
  2992  0996                     	;# 
  2993  0997                     	;# 
  2994  0A19                     	;# 
  2995  0A19                     	;# 
  2996  0A1A                     	;# 
  2997  0A1A                     	;# 
  2998  0A1B                     	;# 
  2999  0A1B                     	;# 
  3000  0A1B                     	;# 
  3001  0A1C                     	;# 
  3002  0A1C                     	;# 
  3003  0A1D                     	;# 
  3004  0A1D                     	;# 
  3005  0A1E                     	;# 
  3006  0A1E                     	;# 
  3007  0A1F                     	;# 
  3008  0A1F                     	;# 
  3009  0A1F                     	;# 
  3010  0C0C                     	;# 
  3011  0C0D                     	;# 
  3012  0C0E                     	;# 
  3013  0C0F                     	;# 
  3014  0C10                     	;# 
  3015  0C11                     	;# 
  3016  0C12                     	;# 
  3017  0C13                     	;# 
  3018  0C14                     	;# 
  3019  0C15                     	;# 
  3020  0C16                     	;# 
  3021  0C17                     	;# 
  3022  0C18                     	;# 
  3023  0C19                     	;# 
  3024  0C1A                     	;# 
  3025  0C1B                     	;# 
  3026  0C1C                     	;# 
  3027  0E8C                     	;# 
  3028  0E8D                     	;# 
  3029  0E8E                     	;# 
  3030  0E8F                     	;# 
  3031  1D0C                     	;# 
  3032  1D0D                     	;# 
  3033  1D0E                     	;# 
  3034  1D0F                     	;# 
  3035  1D10                     	;# 
  3036  1D11                     	;# 
  3037  1D12                     	;# 
  3038  1D13                     	;# 
  3039  1D14                     	;# 
  3040  1D15                     	;# 
  3041  1D16                     	;# 
  3042  1D17                     	;# 
  3043  1D18                     	;# 
  3044  1D19                     	;# 
  3045  1D1A                     	;# 
  3046  1D1E                     	;# 
  3047  1D1F                     	;# 
  3048  1D20                     	;# 
  3049  1D24                     	;# 
  3050  1D25                     	;# 
  3051  1D26                     	;# 
  3052  1D2A                     	;# 
  3053  1D2B                     	;# 
  3054  1D2C                     	;# 
  3055  1D30                     	;# 
  3056  1D31                     	;# 
  3057  1D32                     	;# 
  3058  1D36                     	;# 
  3059  1D37                     	;# 
  3060  1D38                     	;# 
  3061  1D3C                     	;# 
  3062  1D3D                     	;# 
  3063  1D3E                     	;# 
  3064  1D42                     	;# 
  3065  1D43                     	;# 
  3066  1D44                     	;# 
  3067  1E0F                     	;# 
  3068  1E10                     	;# 
  3069  1E11                     	;# 
  3070  1E12                     	;# 
  3071  1E13                     	;# 
  3072  1E14                     	;# 
  3073  1E15                     	;# 
  3074  1E16                     	;# 
  3075  1E17                     	;# 
  3076  1E18                     	;# 
  3077  1E19                     	;# 
  3078  1E1A                     	;# 
  3079  1E1B                     	;# 
  3080  1E1C                     	;# 
  3081  1E1D                     	;# 
  3082  1E1E                     	;# 
  3083  1E1F                     	;# 
  3084  1E20                     	;# 
  3085  1E21                     	;# 
  3086  1E22                     	;# 
  3087  1E23                     	;# 
  3088  1E24                     	;# 
  3089  1E25                     	;# 
  3090  1E26                     	;# 
  3091  1E27                     	;# 
  3092  1E28                     	;# 
  3093  1E29                     	;# 
  3094  1E2A                     	;# 
  3095  1E2B                     	;# 
  3096  1E2C                     	;# 
  3097  1E2D                     	;# 
  3098  1E2E                     	;# 
  3099  1E2F                     	;# 
  3100  1E30                     	;# 
  3101  1E31                     	;# 
  3102  1E32                     	;# 
  3103  1E33                     	;# 
  3104  1E34                     	;# 
  3105  1E35                     	;# 
  3106  1E36                     	;# 
  3107  1E37                     	;# 
  3108  1E8F                     	;# 
  3109  1E90                     	;# 
  3110  1E91                     	;# 
  3111  1E92                     	;# 
  3112  1E93                     	;# 
  3113  1E9C                     	;# 
  3114  1E9D                     	;# 
  3115  1EA1                     	;# 
  3116  1EA2                     	;# 
  3117  1EA9                     	;# 
  3118  1EAA                     	;# 
  3119  1EB1                     	;# 
  3120  1EBB                     	;# 
  3121  1EBC                     	;# 
  3122  1EBD                     	;# 
  3123  1EBE                     	;# 
  3124  1EC3                     	;# 
  3125  1EC5                     	;# 
  3126  1EC6                     	;# 
  3127  1EC7                     	;# 
  3128  1ECB                     	;# 
  3129  1ECC                     	;# 
  3130  1ECD                     	;# 
  3131  1ECE                     	;# 
  3132  1F10                     	;# 
  3133  1F11                     	;# 
  3134  1F12                     	;# 
  3135  1F13                     	;# 
  3136  1F14                     	;# 
  3137  1F15                     	;# 
  3138  1F16                     	;# 
  3139  1F17                     	;# 
  3140  1F18                     	;# 
  3141  1F19                     	;# 
  3142  1F1A                     	;# 
  3143  1F1B                     	;# 
  3144  1F1C                     	;# 
  3145  1F1D                     	;# 
  3146  1F1E                     	;# 
  3147  1F1F                     	;# 
  3148  1F20                     	;# 
  3149  1F21                     	;# 
  3150  1F22                     	;# 
  3151  1F23                     	;# 
  3152  1F24                     	;# 
  3153  1F26                     	;# 
  3154  1F27                     	;# 
  3155  1F38                     	;# 
  3156  1F39                     	;# 
  3157  1F3A                     	;# 
  3158  1F3B                     	;# 
  3159  1F3C                     	;# 
  3160  1F3D                     	;# 
  3161  1F3E                     	;# 
  3162  1F3F                     	;# 
  3163  1F43                     	;# 
  3164  1F44                     	;# 
  3165  1F45                     	;# 
  3166  1F46                     	;# 
  3167  1F47                     	;# 
  3168  1F48                     	;# 
  3169  1F49                     	;# 
  3170  1F4A                     	;# 
  3171  1F4E                     	;# 
  3172  1F4F                     	;# 
  3173  1F50                     	;# 
  3174  1F51                     	;# 
  3175  1F52                     	;# 
  3176  1F53                     	;# 
  3177  1F54                     	;# 
  3178  1F55                     	;# 
  3179  1F65                     	;# 
  3180  1F68                     	;# 
  3181  1F69                     	;# 
  3182  1F6A                     	;# 
  3183  1F6B                     	;# 
  3184  1FE4                     	;# 
  3185  1FE5                     	;# 
  3186  1FE6                     	;# 
  3187  1FE7                     	;# 
  3188  1FE8                     	;# 
  3189  1FE9                     	;# 
  3190  1FEA                     	;# 
  3191  1FEB                     	;# 
  3192  1FED                     	;# 
  3193  1FEE                     	;# 
  3194  1FEF                     	;# 
  3195                           
  3196 ;; Function _EUSART1_DefaultFramingErrorHandler is unused but had its address taken
  3197  0000                     
  3198 ;; Function _EUSART1_DefaultOverrunErrorHandler is unused but had its address taken
  3199  0000                     
  3200 ;; Function _EUSART1_DefaultErrorHandler is unused but had its address taken
  3201  0000                     
  3202                           	psect	nvBANK1
  3203  00E5                     __pnvBANK1:	
  3204  00E5                     _buttonState:	
  3205  00E5                     	ds	2
  3206  00E7                     _EUSART1_ErrorHandler:	
  3207  00E7                     	ds	2
  3208  00E9                     _EUSART1_OverrunErrorHandler:	
  3209  00E9                     	ds	2
  3210  00EB                     _EUSART1_FramingErrorHandler:	
  3211  00EB                     	ds	2
  3212  00ED                     _TMR0_InterruptHandler:	
  3213  00ED                     	ds	2
  3214  001A                     _LATCbits	set	26
  3215  000E                     _PORTCbits	set	14
  3216  000B                     _INTCONbits	set	11
  3217  0014                     _TRISC	set	20
  3218  0013                     _TRISB	set	19
  3219  0012                     _TRISA	set	18
  3220  001A                     _LATC	set	26
  3221  0019                     _LATB	set	25
  3222  0018                     _LATA	set	24
  3223  011A                     _TX1REG	set	282
  3224  0119                     _RC1REG	set	281
  3225  011D                     _RC1STAbits	set	285
  3226  011E                     _TX1STAbits	set	286
  3227  011C                     _SP1BRGH	set	284
  3228  011B                     _SP1BRGL	set	283
  3229  011E                     _TX1STA	set	286
  3230  011D                     _RC1STA	set	285
  3231  011F                     _BAUD1CON	set	287
  3232  059E                     _T0CON0bits	set	1438
  3233  059E                     _T0CON0	set	1438
  3234  059C                     _TMR0L	set	1436
  3235  059D                     _TMR0H	set	1437
  3236  059F                     _T0CON1	set	1439
  3237  070F                     _PIR3bits	set	1807
  3238  070C                     _PIR0bits	set	1804
  3239  0716                     _PIE0bits	set	1814
  3240  079B                     _PMD5	set	1947
  3241  079A                     _PMD4	set	1946
  3242  0799                     _PMD3	set	1945
  3243  0798                     _PMD2	set	1944
  3244  0797                     _PMD1	set	1943
  3245  0796                     _PMD0	set	1942
  3246  0894                     _ACTCON	set	2196
  3247  0892                     _OSCTUNE	set	2194
  3248  0890                     _OSCSTAT	set	2192
  3249  0893                     _OSCFRQ	set	2195
  3250  0891                     _OSCEN	set	2193
  3251  088F                     _OSCCON3	set	2191
  3252  088D                     _OSCCON1	set	2189
  3253  1ECB                     _RX1PPS	set	7883
  3254  1F26                     _RC6PPS	set	7974
  3255  1F68                     _INLVLE	set	8040
  3256  1F52                     _INLVLC	set	8018
  3257  1F47                     _INLVLB	set	8007
  3258  1F3C                     _INLVLA	set	7996
  3259  1F51                     _SLRCONC	set	8017
  3260  1F46                     _SLRCONB	set	8006
  3261  1F3B                     _SLRCONA	set	7995
  3262  1F50                     _ODCONC	set	8016
  3263  1F45                     _ODCONB	set	8005
  3264  1F3A                     _ODCONA	set	7994
  3265  1F4F                     _WPUC	set	8015
  3266  1F39                     _WPUA	set	7993
  3267  1F44                     _WPUB	set	8004
  3268  1F65                     _WPUE	set	8037
  3269  1F38                     _ANSELA	set	7992
  3270  1F43                     _ANSELB	set	8003
  3271  1F4E                     _ANSELC	set	8014
  3272                           
  3273                           	psect	stringtext1
  3274  0695                     __pstringtext1:	
  3275  0695                     STR_1:	
  3276  0695  3468               	retlw	104	;'h'
  3277  0696  346F               	retlw	111	;'o'
  3278  0697  346C               	retlw	108	;'l'
  3279  0698  3464               	retlw	100	;'d'
  3280  0699  3474               	retlw	116	;'t'
  3281  069A  3469               	retlw	105	;'i'
  3282  069B  346D               	retlw	109	;'m'
  3283  069C  3465               	retlw	101	;'e'
  3284  069D  3420               	retlw	32	;' '
  3285  069E  343A               	retlw	58	;':'
  3286  069F  3420               	retlw	32	;' '
  3287  06A0  3425               	retlw	37	;'%'
  3288  06A1  3464               	retlw	100	;'d'
  3289  06A2  3420               	retlw	32	;' '
  3290  06A3  340D               	retlw	13
  3291  06A4  340A               	retlw	10
  3292  06A5  3400               	retlw	0
  3293                           
  3294                           	psect	stringtext2
  3295  0000                     __pstringtext2:	
  3296                           
  3297                           ; #config settings
  3298  0000                     
  3299                           	psect	cinit
  3300  0016                     start_initialization:	
  3301  0016                     __initialization:	
  3302                           
  3303                           ; Clear objects allocated to BANK0
  3304  0016  0140               	movlb	0	; select bank0
  3305  0017  01EE               	clrf	__pbssBANK0& (0+127)
  3306  0018  01EF               	clrf	(__pbssBANK0+1)& (0+127)
  3307                           
  3308                           ; Clear objects allocated to BANK1
  3309  0019  30A0               	movlw	low __pbssBANK1
  3310  001A  0084               	movwf	4
  3311  001B  3000               	movlw	high __pbssBANK1
  3312  001C  0085               	movwf	5
  3313  001D  3039               	movlw	57
  3314  001E  3186  26F6  3180   	fcall	clear_ram0
  3315  0021                     end_of_initialization:	
  3316                           ;End of C runtime variable initialization code
  3317                           
  3318  0021                     __end_of__initialization:	
  3319  0021  107E               	bcf	int$flags,0	;clear compiler interrupt flag (level 1)
  3320  0022  0140               	movlb	0
  3321  0023  3184  2C57         	ljmp	_main	;jump to C main() function
  3322                           
  3323                           	psect	bssBANK0
  3324  006E                     __pbssBANK0:	
  3325  006E                     _flags:	
  3326  006E                     	ds	2
  3327                           
  3328                           	psect	bssBANK1
  3329  00A0                     __pbssBANK1:	
  3330  00A0                     _previousMillis:	
  3331  00A0                     	ds	4
  3332  00A4                     _ticker:	
  3333  00A4                     	ds	4
  3334  00A8                     _nout:	
  3335  00A8                     	ds	2
  3336  00AA                     _width:	
  3337  00AA                     	ds	2
  3338  00AC                     _prec:	
  3339  00AC                     	ds	2
  3340  00AE                     _idleTime:	
  3341  00AE                     	ds	2
  3342  00B0                     _holdTime:	
  3343  00B0                     	ds	2
  3344  00B2                     _endPressed:	
  3345  00B2                     	ds	2
  3346  00B4                     _startPressed:	
  3347  00B4                     	ds	2
  3348  00B6                     _lastButtonState:	
  3349  00B6                     	ds	2
  3350  00B8                     _eusart1RxLastError:	
  3351  00B8                     	ds	1
  3352  00B9                     _dbuf:	
  3353  00B9                     	ds	32
  3354                           
  3355                           	psect	clrtext
  3356  06F6                     clear_ram0:	
  3357                           ;	Called with FSR0 containing the base address, and
  3358                           ;	WREG with the size to clear
  3359                           
  3360  06F6  0064               	clrwdt	;clear the watchdog before getting into this loop
  3361  06F7                     clrloop0:	
  3362  06F7  0180               	clrf	0	;clear RAM location pointed to by FSR
  3363  06F8  3101               	addfsr 0,1
  3364  06F9  0B89               	decfsz	9,f	;Have we reached the end of clearing yet?
  3365  06FA  2EF7               	goto	clrloop0	;have we reached the end yet?
  3366  06FB  3400               	retlw	0	;all done for this memory range, return
  3367                           
  3368                           	psect	cstackBANK1
  3369  00D9                     __pcstackBANK1:	
  3370  00D9                     ??_main:	
  3371                           
  3372                           ; 1 bytes @ 0x0
  3373  00D9                     	ds	8
  3374  00E1                     main@currentMillis:	
  3375                           
  3376                           ; 4 bytes @ 0x8
  3377  00E1                     	ds	4
  3378                           
  3379                           	psect	cstackCOMMON
  3380  0070                     __pcstackCOMMON:	
  3381  0070                     ?_TMR0_ISR:	
  3382  0070                     ??_TMR0_ISR:	
  3383                           ; 1 bytes @ 0x0
  3384                           
  3385  0070                     ?_PMD_Initialize:	
  3386                           ; 1 bytes @ 0x0
  3387                           
  3388  0070                     ??_PMD_Initialize:	
  3389                           ; 1 bytes @ 0x0
  3390                           
  3391  0070                     ?_PIN_MANAGER_Initialize:	
  3392                           ; 1 bytes @ 0x0
  3393                           
  3394  0070                     ??_PIN_MANAGER_Initialize:	
  3395                           ; 1 bytes @ 0x0
  3396                           
  3397  0070                     ?_OSCILLATOR_Initialize:	
  3398                           ; 1 bytes @ 0x0
  3399                           
  3400  0070                     ??_OSCILLATOR_Initialize:	
  3401                           ; 1 bytes @ 0x0
  3402                           
  3403  0070                     ?_TMR0_Initialize:	
  3404                           ; 1 bytes @ 0x0
  3405                           
  3406  0070                     ?_EUSART1_Initialize:	
  3407                           ; 1 bytes @ 0x0
  3408                           
  3409  0070                     ?_TMR0_SetInterruptHandler:	
  3410                           ; 1 bytes @ 0x0
  3411                           
  3412  0070                     ?_TMR0_DefaultInterruptHandler:	
  3413                           ; 1 bytes @ 0x0
  3414                           
  3415  0070                     ??_TMR0_DefaultInterruptHandler:	
  3416                           ; 1 bytes @ 0x0
  3417                           
  3418  0070                     ?_EUSART1_SetFramingErrorHandler:	
  3419                           ; 1 bytes @ 0x0
  3420                           
  3421  0070                     ?_EUSART1_SetOverrunErrorHandler:	
  3422                           ; 1 bytes @ 0x0
  3423                           
  3424  0070                     ?_EUSART1_SetErrorHandler:	
  3425                           ; 1 bytes @ 0x0
  3426                           
  3427  0070                     ?_INTERRUPT_InterruptManager:	
  3428                           ; 1 bytes @ 0x0
  3429                           
  3430  0070                     ??_INTERRUPT_InterruptManager:	
  3431                           ; 1 bytes @ 0x0
  3432                           
  3433  0070                     ?_SYSTEM_Initialize:	
  3434                           ; 1 bytes @ 0x0
  3435                           
  3436  0070                     ?_EUSART1_Write:	
  3437                           ; 1 bytes @ 0x0
  3438                           
  3439  0070                     ??_EUSART1_Write:	
  3440                           ; 1 bytes @ 0x0
  3441                           
  3442  0070                     ?_putch:	
  3443                           ; 1 bytes @ 0x0
  3444                           
  3445  0070                     ?_timer_callback:	
  3446                           ; 1 bytes @ 0x0
  3447                           
  3448  0070                     ??_timer_callback:	
  3449                           ; 1 bytes @ 0x0
  3450                           
  3451  0070                     ?_updateState:	
  3452                           ; 1 bytes @ 0x0
  3453                           
  3454  0070                     ?_main:	
  3455                           ; 1 bytes @ 0x0
  3456                           
  3457  0070                     ??___aodiv:	
  3458                           ; 1 bytes @ 0x0
  3459                           
  3460  0070                     ??___aomod:	
  3461                           ; 1 bytes @ 0x0
  3462                           
  3463  0070                     ?_strlen:	
  3464                           ; 1 bytes @ 0x0
  3465                           
  3466  0070                     ?_millis:	
  3467                           ; 2 bytes @ 0x0
  3468                           
  3469  0070                     EUSART1_Write@txData:	
  3470                           ; 4 bytes @ 0x0
  3471                           
  3472  0070                     TMR0_SetInterruptHandler@InterruptHandler:	
  3473                           ; 1 bytes @ 0x0
  3474                           
  3475  0070                     EUSART1_SetFramingErrorHandler@interruptHandler:	
  3476                           ; 2 bytes @ 0x0
  3477                           
  3478  0070                     EUSART1_SetOverrunErrorHandler@interruptHandler:	
  3479                           ; 2 bytes @ 0x0
  3480                           
  3481  0070                     EUSART1_SetErrorHandler@interruptHandler:	
  3482                           ; 2 bytes @ 0x0
  3483                           
  3484                           
  3485                           ; 2 bytes @ 0x0
  3486  0070                     	ds	1
  3487  0071                     ??_putch:	
  3488  0071                     putch@txData:	
  3489                           ; 1 bytes @ 0x1
  3490                           
  3491  0071                     ___aodiv@counter:	
  3492                           ; 1 bytes @ 0x1
  3493                           
  3494  0071                     ___aomod@counter:	
  3495                           ; 1 bytes @ 0x1
  3496                           
  3497                           
  3498                           ; 1 bytes @ 0x1
  3499  0071                     	ds	1
  3500  0072                     ??_TMR0_Initialize:	
  3501  0072                     ??_EUSART1_Initialize:	
  3502                           ; 1 bytes @ 0x2
  3503                           
  3504  0072                     ??_TMR0_SetInterruptHandler:	
  3505                           ; 1 bytes @ 0x2
  3506                           
  3507  0072                     ??_EUSART1_SetFramingErrorHandler:	
  3508                           ; 1 bytes @ 0x2
  3509                           
  3510  0072                     ??_EUSART1_SetOverrunErrorHandler:	
  3511                           ; 1 bytes @ 0x2
  3512                           
  3513  0072                     ??_EUSART1_SetErrorHandler:	
  3514                           ; 1 bytes @ 0x2
  3515                           
  3516  0072                     ??_strlen:	
  3517                           ; 1 bytes @ 0x2
  3518                           
  3519  0072                     ??_SYSTEM_Initialize:	
  3520                           ; 1 bytes @ 0x2
  3521                           
  3522  0072                     ?_fputc:	
  3523                           ; 1 bytes @ 0x2
  3524                           
  3525  0072                     ___aodiv@sign:	
  3526                           ; 2 bytes @ 0x2
  3527                           
  3528  0072                     ___aomod@sign:	
  3529                           ; 1 bytes @ 0x2
  3530                           
  3531  0072                     fputc@c:	
  3532                           ; 1 bytes @ 0x2
  3533                           
  3534                           
  3535                           ; 2 bytes @ 0x2
  3536  0072                     	ds	1
  3537  0073                     ?_abs:	
  3538  0073                     strlen@a:	
  3539                           ; 2 bytes @ 0x3
  3540                           
  3541  0073                     abs@a:	
  3542                           ; 1 bytes @ 0x3
  3543                           
  3544  0073                     ___aodiv@quotient:	
  3545                           ; 2 bytes @ 0x3
  3546                           
  3547                           
  3548                           ; 8 bytes @ 0x3
  3549  0073                     	ds	1
  3550  0074                     ??_millis:	
  3551  0074                     fputc@fp:	
  3552                           ; 1 bytes @ 0x4
  3553                           
  3554  0074                     strlen@s:	
  3555                           ; 1 bytes @ 0x4
  3556                           
  3557                           
  3558                           ; 1 bytes @ 0x4
  3559  0074                     	ds	1
  3560  0075                     ??_fputc:	
  3561  0075                     ??_abs:	
  3562                           ; 1 bytes @ 0x5
  3563                           
  3564                           
  3565                           ; 1 bytes @ 0x5
  3566  0075                     	ds	5
  3567  007A                     ?_fputs:	
  3568  007A                     fputs@fp:	
  3569                           ; 2 bytes @ 0xA
  3570                           
  3571                           
  3572                           ; 1 bytes @ 0xA
  3573  007A                     	ds	1
  3574  007B                     ??_fputs:	
  3575                           
  3576                           ; 1 bytes @ 0xB
  3577  007B                     	ds	3
  3578  007E                     ??_updateState:	
  3579                           
  3580                           	psect	cstackBANK0
  3581  0020                     __pcstackBANK0:	
  3582                           ; 1 bytes @ 0xE
  3583                           
  3584  0020                     ?___aodiv:	
  3585  0020                     ?___aomod:	
  3586                           ; 8 bytes @ 0x0
  3587                           
  3588  0020                     fputs@c:	
  3589                           ; 8 bytes @ 0x0
  3590                           
  3591  0020                     ___aodiv@divisor:	
  3592                           ; 1 bytes @ 0x0
  3593                           
  3594  0020                     ___aomod@divisor:	
  3595                           ; 8 bytes @ 0x0
  3596                           
  3597                           
  3598                           ; 8 bytes @ 0x0
  3599  0020                     	ds	1
  3600  0021                     fputs@i:	
  3601                           
  3602                           ; 2 bytes @ 0x1
  3603  0021                     	ds	2
  3604  0023                     fputs@s:	
  3605                           
  3606                           ; 1 bytes @ 0x3
  3607  0023                     	ds	1
  3608  0024                     ?_pad:	
  3609  0024                     pad@buf:	
  3610                           ; 2 bytes @ 0x4
  3611                           
  3612                           
  3613                           ; 1 bytes @ 0x4
  3614  0024                     	ds	1
  3615  0025                     pad@p:	
  3616                           
  3617                           ; 2 bytes @ 0x5
  3618  0025                     	ds	2
  3619  0027                     ??_pad:	
  3620                           
  3621                           ; 1 bytes @ 0x7
  3622  0027                     	ds	1
  3623  0028                     pad@i:	
  3624  0028                     ___aodiv@dividend:	
  3625                           ; 2 bytes @ 0x8
  3626                           
  3627  0028                     ___aomod@dividend:	
  3628                           ; 8 bytes @ 0x8
  3629                           
  3630                           
  3631                           ; 8 bytes @ 0x8
  3632  0028                     	ds	2
  3633  002A                     pad@w:	
  3634                           
  3635                           ; 2 bytes @ 0xA
  3636  002A                     	ds	2
  3637  002C                     pad@fp:	
  3638                           
  3639                           ; 1 bytes @ 0xC
  3640  002C                     	ds	4
  3641  0030                     ?_dtoa:	
  3642  0030                     dtoa@d:	
  3643                           ; 2 bytes @ 0x10
  3644                           
  3645                           
  3646                           ; 8 bytes @ 0x10
  3647  0030                     	ds	8
  3648  0038                     ??_dtoa:	
  3649                           
  3650                           ; 1 bytes @ 0x18
  3651  0038                     	ds	3
  3652  003B                     _dtoa$687:	
  3653                           
  3654                           ; 2 bytes @ 0x1B
  3655  003B                     	ds	2
  3656  003D                     dtoa@p:	
  3657                           
  3658                           ; 2 bytes @ 0x1D
  3659  003D                     	ds	2
  3660  003F                     dtoa@fp:	
  3661                           
  3662                           ; 1 bytes @ 0x1F
  3663  003F                     	ds	1
  3664  0040                     dtoa@w:	
  3665                           
  3666                           ; 2 bytes @ 0x20
  3667  0040                     	ds	2
  3668  0042                     dtoa@s:	
  3669                           
  3670                           ; 2 bytes @ 0x22
  3671  0042                     	ds	2
  3672  0044                     dtoa@n:	
  3673                           
  3674                           ; 8 bytes @ 0x24
  3675  0044                     	ds	8
  3676  004C                     dtoa@i:	
  3677                           
  3678                           ; 2 bytes @ 0x2C
  3679  004C                     	ds	2
  3680  004E                     ?_vfpfcnvrt:	
  3681  004E                     vfpfcnvrt@fmt:	
  3682                           ; 2 bytes @ 0x2E
  3683                           
  3684                           
  3685                           ; 1 bytes @ 0x2E
  3686  004E                     	ds	1
  3687  004F                     vfpfcnvrt@ap:	
  3688                           
  3689                           ; 1 bytes @ 0x2F
  3690  004F                     	ds	1
  3691  0050                     ??_vfpfcnvrt:	
  3692                           
  3693                           ; 1 bytes @ 0x30
  3694  0050                     	ds	5
  3695  0055                     vfpfcnvrt@ll:	
  3696                           
  3697                           ; 8 bytes @ 0x35
  3698  0055                     	ds	8
  3699  005D                     vfpfcnvrt@fp:	
  3700                           
  3701                           ; 1 bytes @ 0x3D
  3702  005D                     	ds	1
  3703  005E                     ?_vfprintf:	
  3704  005E                     vfprintf@fmt:	
  3705                           ; 2 bytes @ 0x3E
  3706                           
  3707                           
  3708                           ; 2 bytes @ 0x3E
  3709  005E                     	ds	2
  3710  0060                     vfprintf@ap:	
  3711                           
  3712                           ; 1 bytes @ 0x40
  3713  0060                     	ds	1
  3714  0061                     ??_vfprintf:	
  3715                           
  3716                           ; 1 bytes @ 0x41
  3717  0061                     	ds	2
  3718  0063                     vfprintf@fp:	
  3719                           
  3720                           ; 1 bytes @ 0x43
  3721  0063                     	ds	1
  3722  0064                     vfprintf@cfmt:	
  3723                           
  3724                           ; 2 bytes @ 0x44
  3725  0064                     	ds	2
  3726  0066                     ?_printf:	
  3727  0066                     printf@fmt:	
  3728                           ; 2 bytes @ 0x46
  3729                           
  3730                           
  3731                           ; 2 bytes @ 0x46
  3732  0066                     	ds	4
  3733  006A                     ??_printf:	
  3734                           
  3735                           ; 1 bytes @ 0x4A
  3736  006A                     	ds	3
  3737  006D                     printf@ap:	
  3738                           
  3739                           ; 1 bytes @ 0x4D
  3740  006D                     	ds	1
  3741                           
  3742                           	psect	maintext
  3743  0457                     __pmaintext:	
  3744 ;;
  3745 ;;Main: autosize = 0, tempsize = 8, incstack = 0, save=0
  3746 ;;
  3747 ;; *************** function _main *****************
  3748 ;; Defined at:
  3749 ;;		line 83 in file "main.c"
  3750 ;; Parameters:    Size  Location     Type
  3751 ;;		None
  3752 ;; Auto vars:     Size  Location     Type
  3753 ;;  currentMilli    4    8[BANK1 ] unsigned long 
  3754 ;; Return value:  Size  Location     Type
  3755 ;;                  1    wreg      void 
  3756 ;; Registers used:
  3757 ;;		wreg, fsr0l, fsr0h, fsr1l, fsr1h, status,2, status,0, pclath, cstack
  3758 ;; Tracked objects:
  3759 ;;		On entry : B3F/0
  3760 ;;		On exit  : 0/0
  3761 ;;		Unchanged: 0/0
  3762 ;; Data sizes:     COMMON   BANK0   BANK1   BANK2   BANK3   BANK4   BANK5   BANK6   BANK7   BANK8   BANK9  BANK10  BANK1
      +1  BANK12  BANK13  BANK14  BANK15  BANK16  BANK17  BANK18  BANK19  BANK20  BANK21  BANK22  BANK23  BANK24  BANK25
  3763 ;;      Params:         0       0       0       0       0       0       0       0       0       0       0       0       
      +0       0       0       0       0       0       0       0       0       0       0       0       0       0       0
  3764 ;;      Locals:         0       0       4       0       0       0       0       0       0       0       0       0       
      +0       0       0       0       0       0       0       0       0       0       0       0       0       0       0
  3765 ;;      Temps:          0       0       8       0       0       0       0       0       0       0       0       0       
      +0       0       0       0       0       0       0       0       0       0       0       0       0       0       0
  3766 ;;      Totals:         0       0      12       0       0       0       0       0       0       0       0       0       
      +0       0       0       0       0       0       0       0       0       0       0       0       0       0       0
  3767 ;;Total ram usage:       12 bytes
  3768 ;; Hardware stack levels required when called:   13
  3769 ;; This function calls:
  3770 ;;		_SYSTEM_Initialize
  3771 ;;		_TMR0_SetInterruptHandler
  3772 ;;		_millis
  3773 ;;		_updateState
  3774 ;; This function is called by:
  3775 ;;		Startup code after reset
  3776 ;; This function uses a non-reentrant model
  3777 ;;
  3778                           
  3779                           
  3780                           ;psect for function _main
  3781  0457                     _main:	
  3782  0457                     l1848:	
  3783                           ;incstack = 0
  3784                           ; Regs used in _main: [wreg-fsr1h+status,2+status,0+pclath+cstack]
  3785                           
  3786                           
  3787                           ;main.c: 85:     SYSTEM_Initialize();
  3788  0457  3186  26A6  3184   	fcall	_SYSTEM_Initialize
  3789                           
  3790                           ;main.c: 87:     TMR0_SetInterruptHandler(timer_callback);
  3791  045A  30E4               	movlw	low _timer_callback
  3792  045B  00F0               	movwf	TMR0_SetInterruptHandler@InterruptHandler
  3793  045C  3006               	movlw	high _timer_callback
  3794  045D  00F1               	movwf	TMR0_SetInterruptHandler@InterruptHandler+1
  3795  045E  3187  2702  3184   	fcall	_TMR0_SetInterruptHandler
  3796  0461                     l1850:	
  3797                           
  3798                           ;main.c: 92:     (INTCONbits.GIE = 1);
  3799  0461  178B               	bsf	11,7	;volatile
  3800  0462                     l1852:	
  3801                           
  3802                           ;main.c: 95:     (INTCONbits.PEIE = 1);
  3803  0462  170B               	bsf	11,6	;volatile
  3804  0463                     l1854:	
  3805                           
  3806                           ;main.c: 105:         buttonState = PORTCbits.RC4;
  3807  0463  0140               	movlb	0	; select bank0
  3808  0464  0E0E               	swapf	14,w	;volatile
  3809  0465  3901               	andlw	1
  3810  0466  0141               	movlb	1	; select bank1
  3811  0467  00D9               	movwf	??_main^(0+128)
  3812  0468  01DA               	clrf	(??_main^(0+128)+1)
  3813  0469  0859               	movf	??_main^(0+128),w
  3814  046A  00E5               	movwf	_buttonState^(0+128)
  3815  046B  085A               	movf	(??_main+1)^(0+128),w
  3816  046C  00E6               	movwf	(_buttonState+1)^(0+128)
  3817  046D                     l1856:	
  3818                           
  3819                           ;main.c: 106:         if (buttonState != lastButtonState) {
  3820  046D  0837               	movf	(_lastButtonState+1)^(0+128),w
  3821  046E  0666               	xorwf	(_buttonState+1)^(0+128),w
  3822  046F  1D03               	skipz
  3823  0470  2C73               	goto	u1285
  3824  0471  0836               	movf	_lastButtonState^(0+128),w
  3825  0472  0665               	xorwf	_buttonState^(0+128),w
  3826  0473                     u1285:	
  3827  0473  1903               	skipnz
  3828  0474  2C76               	goto	u1281
  3829  0475  2C77               	goto	u1280
  3830  0476                     u1281:	
  3831  0476  2C7A               	goto	l1860
  3832  0477                     u1280:	
  3833  0477                     l1858:	
  3834                           
  3835                           ;main.c: 107:             updateState();
  3836  0477  3185  2596  3184   	fcall	_updateState
  3837  047A                     l1860:	
  3838                           
  3839                           ;main.c: 109:         if(holdTime != 0){
  3840  047A  0141               	movlb	1	; select bank1
  3841  047B  0830               	movf	_holdTime^(0+128),w
  3842  047C  0431               	iorwf	(_holdTime+1)^(0+128),w
  3843  047D  1903               	btfsc	3,2
  3844  047E  2C80               	goto	u1291
  3845  047F  2C81               	goto	u1290
  3846  0480                     u1291:	
  3847  0480  2CC8               	goto	l1870
  3848  0481                     u1290:	
  3849  0481                     l1862:	
  3850                           
  3851                           ;main.c: 110:         unsigned long currentMillis = millis();
  3852  0481  3186  26DA  3184   	fcall	_millis
  3853  0484  0873               	movf	?_millis+3,w
  3854  0485  0141               	movlb	1	; select bank1
  3855  0486  00E4               	movwf	(main@currentMillis+3)^(0+128)
  3856  0487  0872               	movf	?_millis+2,w
  3857  0488  00E3               	movwf	(main@currentMillis+2)^(0+128)
  3858  0489  0871               	movf	?_millis+1,w
  3859  048A  00E2               	movwf	(main@currentMillis+1)^(0+128)
  3860  048B  0870               	movf	?_millis,w
  3861  048C  00E1               	movwf	main@currentMillis^(0+128)
  3862  048D                     l1864:	
  3863                           
  3864                           ;main.c: 111:         if (currentMillis - previousMillis >= holdTime) {
  3865  048D  0830               	movf	_holdTime^(0+128),w
  3866  048E  00D9               	movwf	??_main^(0+128)
  3867  048F  0831               	movf	(_holdTime+1)^(0+128),w
  3868  0490  00DA               	movwf	(??_main^(0+128)+1)
  3869  0491  3000               	movlw	0
  3870  0492  1BDA               	btfsc	(??_main^(0+128)+1),7
  3871  0493  30FF               	movlw	255
  3872  0494  00DB               	movwf	(??_main^(0+128)+2)
  3873  0495  00DC               	movwf	(??_main^(0+128)+3)
  3874  0496  0820               	movf	_previousMillis^(0+128),w
  3875  0497  0261               	subwf	main@currentMillis^(0+128),w
  3876  0498  00DD               	movwf	(??_main+4)^(0+128)
  3877  0499  0821               	movf	(_previousMillis+1)^(0+128),w
  3878  049A  3B62               	subwfb	(main@currentMillis+1)^(0+128),w
  3879  049B  00DE               	movwf	((??_main+4)^(0+128)+1)
  3880  049C  0822               	movf	(_previousMillis+2)^(0+128),w
  3881  049D  3B63               	subwfb	(main@currentMillis+2)^(0+128),w
  3882  049E  00DF               	movwf	((??_main+4)^(0+128)+2)
  3883  049F  0823               	movf	(_previousMillis+3)^(0+128),w
  3884  04A0  3B64               	subwfb	(main@currentMillis+3)^(0+128),w
  3885  04A1  00E0               	movwf	((??_main+4)^(0+128)+3)
  3886  04A2  085C               	movf	(??_main+3)^(0+128),w
  3887  04A3  0260               	subwf	(??_main+7)^(0+128),w
  3888  04A4  1D03               	skipz
  3889  04A5  2CB0               	goto	u1305
  3890  04A6  085B               	movf	(??_main+2)^(0+128),w
  3891  04A7  025F               	subwf	(??_main+6)^(0+128),w
  3892  04A8  1D03               	skipz
  3893  04A9  2CB0               	goto	u1305
  3894  04AA  085A               	movf	(??_main+1)^(0+128),w
  3895  04AB  025E               	subwf	(??_main+5)^(0+128),w
  3896  04AC  1D03               	skipz
  3897  04AD  2CB0               	goto	u1305
  3898  04AE  0859               	movf	??_main^(0+128),w
  3899  04AF  025D               	subwf	(??_main+4)^(0+128),w
  3900  04B0                     u1305:	
  3901  04B0  1C03               	skipc
  3902  04B1  2CB3               	goto	u1301
  3903  04B2  2CB4               	goto	u1300
  3904  04B3                     u1301:	
  3905  04B3  2CC8               	goto	l1870
  3906  04B4                     u1300:	
  3907  04B4                     l1866:	
  3908                           
  3909                           ;main.c: 113:             previousMillis = currentMillis;
  3910  04B4  0864               	movf	(main@currentMillis+3)^(0+128),w
  3911  04B5  00A3               	movwf	(_previousMillis+3)^(0+128)
  3912  04B6  0863               	movf	(main@currentMillis+2)^(0+128),w
  3913  04B7  00A2               	movwf	(_previousMillis+2)^(0+128)
  3914  04B8  0862               	movf	(main@currentMillis+1)^(0+128),w
  3915  04B9  00A1               	movwf	(_previousMillis+1)^(0+128)
  3916  04BA  0861               	movf	main@currentMillis^(0+128),w
  3917  04BB  00A0               	movwf	_previousMillis^(0+128)
  3918  04BC                     l1868:	
  3919                           
  3920                           ;main.c: 115:             LATCbits.LATC3 = ~LATCbits.LATC3;
  3921  04BC  1003               	clrc
  3922  04BD  0140               	movlb	0	; select bank0
  3923  04BE  1D9A               	btfss	26,3	;volatile
  3924  04BF  1403               	setc
  3925  04C0  1803               	btfsc	3,0
  3926  04C1  2CC3               	goto	u1311
  3927  04C2  2CC6               	goto	u1310
  3928  04C3                     u1311:	
  3929  04C3  0140               	movlb	0	; select bank0
  3930  04C4  159A               	bsf	26,3	;volatile
  3931  04C5  2CC8               	goto	u1324
  3932  04C6                     u1310:	
  3933  04C6  0140               	movlb	0	; select bank0
  3934  04C7  119A               	bcf	26,3	;volatile
  3935  04C8                     u1324:	
  3936  04C8                     l1870:	
  3937                           
  3938                           ;main.c: 119:         lastButtonState = buttonState;
  3939  04C8  0141               	movlb	1	; select bank1
  3940  04C9  0866               	movf	(_buttonState+1)^(0+128),w
  3941  04CA  00B7               	movwf	(_lastButtonState+1)^(0+128)
  3942  04CB  0865               	movf	_buttonState^(0+128),w
  3943  04CC  00B6               	movwf	_lastButtonState^(0+128)
  3944  04CD  2C63               	goto	l1854
  3945  04CE  3180  2814         	ljmp	start
  3946  04D0                     __end_of_main:	
  3947                           
  3948                           	psect	text1
  3949  0596                     __ptext1:	
  3950 ;; *************** function _updateState *****************
  3951 ;; Defined at:
  3952 ;;		line 65 in file "main.c"
  3953 ;; Parameters:    Size  Location     Type
  3954 ;;		None
  3955 ;; Auto vars:     Size  Location     Type
  3956 ;;		None
  3957 ;; Return value:  Size  Location     Type
  3958 ;;                  1    wreg      void 
  3959 ;; Registers used:
  3960 ;;		wreg, fsr0l, fsr0h, fsr1l, fsr1h, status,2, status,0, pclath, cstack
  3961 ;; Tracked objects:
  3962 ;;		On entry : 0/0
  3963 ;;		On exit  : 0/0
  3964 ;;		Unchanged: 0/0
  3965 ;; Data sizes:     COMMON   BANK0   BANK1   BANK2   BANK3   BANK4   BANK5   BANK6   BANK7   BANK8   BANK9  BANK10  BANK1
      +1  BANK12  BANK13  BANK14  BANK15  BANK16  BANK17  BANK18  BANK19  BANK20  BANK21  BANK22  BANK23  BANK24  BANK25
  3966 ;;      Params:         0       0       0       0       0       0       0       0       0       0       0       0       
      +0       0       0       0       0       0       0       0       0       0       0       0       0       0       0
  3967 ;;      Locals:         0       0       0       0       0       0       0       0       0       0       0       0       
      +0       0       0       0       0       0       0       0       0       0       0       0       0       0       0
  3968 ;;      Temps:          0       0       0       0       0       0       0       0       0       0       0       0       
      +0       0       0       0       0       0       0       0       0       0       0       0       0       0       0
  3969 ;;      Totals:         0       0       0       0       0       0       0       0       0       0       0       0       
      +0       0       0       0       0       0       0       0       0       0       0       0       0       0       0
  3970 ;;Total ram usage:        0 bytes
  3971 ;; Hardware stack levels used:    1
  3972 ;; Hardware stack levels required when called:   12
  3973 ;; This function calls:
  3974 ;;		_millis
  3975 ;;		_printf
  3976 ;; This function is called by:
  3977 ;;		_main
  3978 ;; This function uses a non-reentrant model
  3979 ;;
  3980                           
  3981                           
  3982                           ;psect for function _updateState
  3983  0596                     _updateState:	
  3984  0596                     l1828:	
  3985                           ;incstack = 0
  3986                           ; Regs used in _updateState: [wreg-fsr1h+status,2+status,0+pclath+cstack]
  3987                           
  3988                           
  3989                           ;main.c: 68:   if (buttonState == 0)
  3990  0596  0141               	movlb	1	; select bank1
  3991  0597  0865               	movf	_buttonState^(0+128),w
  3992  0598  0466               	iorwf	(_buttonState+1)^(0+128),w
  3993  0599  1D03               	btfss	3,2
  3994  059A  2D9C               	goto	u1251
  3995  059B  2D9D               	goto	u1250
  3996  059C                     u1251:	
  3997  059C  2DA6               	goto	l1832
  3998  059D                     u1250:	
  3999  059D                     l1830:	
  4000                           
  4001                           ;main.c: 69:   {;main.c: 70:     startPressed = millis();
  4002  059D  3186  26DA  3185   	fcall	_millis
  4003  05A0  0871               	movf	?_millis+1,w
  4004  05A1  0141               	movlb	1	; select bank1
  4005  05A2  00B5               	movwf	(_startPressed+1)^(0+128)
  4006  05A3  0870               	movf	?_millis,w
  4007  05A4  00B4               	movwf	_startPressed^(0+128)
  4008                           
  4009                           ;main.c: 71:   }
  4010  05A5  2DC4               	goto	l295
  4011  05A6                     l1832:	
  4012                           
  4013                           ;main.c: 73:   {;main.c: 74:     endPressed = millis();
  4014  05A6  3186  26DA  3185   	fcall	_millis
  4015  05A9  0871               	movf	?_millis+1,w
  4016  05AA  0141               	movlb	1	; select bank1
  4017  05AB  00B3               	movwf	(_endPressed+1)^(0+128)
  4018  05AC  0870               	movf	?_millis,w
  4019  05AD  00B2               	movwf	_endPressed^(0+128)
  4020  05AE                     l1834:	
  4021                           
  4022                           ;main.c: 75:     holdTime = endPressed - startPressed;
  4023  05AE  0834               	movf	_startPressed^(0+128),w
  4024  05AF  0232               	subwf	_endPressed^(0+128),w
  4025  05B0  00B0               	movwf	_holdTime^(0+128)
  4026  05B1  0835               	movf	(_startPressed+1)^(0+128),w
  4027  05B2  3B33               	subwfb	(_endPressed+1)^(0+128),w
  4028  05B3  00B1               	movwf	(_holdTime+1)^(0+128)
  4029  05B4                     l1836:	
  4030                           
  4031                           ;main.c: 76:     printf("holdtime : %d \r\n",holdTime);
  4032  05B4  3095               	movlw	low (STR_1| (0+32768))
  4033  05B5  0140               	movlb	0	; select bank0
  4034  05B6  00E6               	movwf	printf@fmt
  4035  05B7  3086               	movlw	high (STR_1| (0+32768))
  4036  05B8  00E7               	movwf	printf@fmt+1
  4037  05B9  0141               	movlb	1	; select bank1
  4038  05BA  0831               	movf	(_holdTime+1)^(0+128),w
  4039  05BB  0140               	movlb	0	; select bank0
  4040  05BC  00E9               	movwf	?_printf+3
  4041  05BD  0141               	movlb	1	; select bank1
  4042  05BE  0830               	movf	_holdTime^(0+128),w
  4043  05BF  0140               	movlb	0	; select bank0
  4044  05C0  00E8               	movwf	?_printf+2
  4045  05C1  3186  2683  3185   	fcall	_printf
  4046  05C4                     l295:	
  4047  05C4  0008               	return
  4048  05C5                     __end_of_updateState:	
  4049                           
  4050                           	psect	text2
  4051  0683                     __ptext2:	
  4052 ;; *************** function _printf *****************
  4053 ;; Defined at:
  4054 ;;		line 5 in file "C:\Program Files (x86)\Microchip\xc8\v2.10\pic\sources\c99\common\printf.c"
  4055 ;; Parameters:    Size  Location     Type
  4056 ;;  fmt             2   70[BANK0 ] PTR const unsigned char 
  4057 ;;		 -> STR_1(17), 
  4058 ;; Auto vars:     Size  Location     Type
  4059 ;;  ret             2    0        int 
  4060 ;;  ap              1   77[BANK0 ] PTR void [1]
  4061 ;;		 -> ?_printf(2), 
  4062 ;; Return value:  Size  Location     Type
  4063 ;;                  2   70[BANK0 ] int 
  4064 ;; Registers used:
  4065 ;;		wreg, fsr0l, fsr0h, fsr1l, fsr1h, status,2, status,0, pclath, cstack
  4066 ;; Tracked objects:
  4067 ;;		On entry : 0/0
  4068 ;;		On exit  : 0/0
  4069 ;;		Unchanged: 0/0
  4070 ;; Data sizes:     COMMON   BANK0   BANK1   BANK2   BANK3   BANK4   BANK5   BANK6   BANK7   BANK8   BANK9  BANK10  BANK1
      +1  BANK12  BANK13  BANK14  BANK15  BANK16  BANK17  BANK18  BANK19  BANK20  BANK21  BANK22  BANK23  BANK24  BANK25
  4071 ;;      Params:         0       4       0       0       0       0       0       0       0       0       0       0       
      +0       0       0       0       0       0       0       0       0       0       0       0       0       0       0
  4072 ;;      Locals:         0       3       0       0       0       0       0       0       0       0       0       0       
      +0       0       0       0       0       0       0       0       0       0       0       0       0       0       0
  4073 ;;      Temps:          0       1       0       0       0       0       0       0       0       0       0       0       
      +0       0       0       0       0       0       0       0       0       0       0       0       0       0       0
  4074 ;;      Totals:         0       8       0       0       0       0       0       0       0       0       0       0       
      +0       0       0       0       0       0       0       0       0       0       0       0       0       0       0
  4075 ;;Total ram usage:        8 bytes
  4076 ;; Hardware stack levels used:    1
  4077 ;; Hardware stack levels required when called:   11
  4078 ;; This function calls:
  4079 ;;		_vfprintf
  4080 ;; This function is called by:
  4081 ;;		_updateState
  4082 ;; This function uses a non-reentrant model
  4083 ;;
  4084                           
  4085                           
  4086                           ;psect for function _printf
  4087  0683                     _printf:	
  4088  0683                     l1794:	
  4089                           ;incstack = 0
  4090                           ; Regs used in _printf: [wreg-fsr1h+status,2+status,0+pclath+cstack]
  4091                           
  4092  0683  3068               	movlw	(low ((?_printf| 0+2)))& (0+255)
  4093  0684  0140               	movlb	0	; select bank0
  4094  0685  00EA               	movwf	??_printf
  4095  0686  086A               	movf	??_printf,w
  4096  0687  00ED               	movwf	printf@ap
  4097  0688                     l1796:	
  4098  0688  0867               	movf	printf@fmt+1,w
  4099  0689  00DF               	movwf	vfprintf@fmt+1
  4100  068A  0866               	movf	printf@fmt,w
  4101  068B  00DE               	movwf	vfprintf@fmt
  4102  068C  306D               	movlw	(low (printf@ap| 0))& (0+255)
  4103  068D  00EA               	movwf	??_printf
  4104  068E  086A               	movf	??_printf,w
  4105  068F  00E0               	movwf	vfprintf@ap
  4106  0690  3000               	movlw	0
  4107  0691  3185  2565  3186   	fcall	_vfprintf
  4108  0694                     l1014:	
  4109  0694  0008               	return
  4110  0695                     __end_of_printf:	
  4111                           
  4112                           	psect	text3
  4113  0565                     __ptext3:	
  4114 ;; *************** function _vfprintf *****************
  4115 ;; Defined at:
  4116 ;;		line 1368 in file "C:\Program Files (x86)\Microchip\xc8\v2.10\pic\sources\c99\common\doprnt.c"
  4117 ;; Parameters:    Size  Location     Type
  4118 ;;  fp              1    wreg     PTR struct _IO_FILE
  4119 ;;		 -> NULL(0), 
  4120 ;;  fmt             2   62[BANK0 ] PTR const unsigned char 
  4121 ;;		 -> STR_1(17), 
  4122 ;;  ap              1   64[BANK0 ] PTR PTR void 
  4123 ;;		 -> printf@ap(1), 
  4124 ;; Auto vars:     Size  Location     Type
  4125 ;;  fp              1   67[BANK0 ] PTR struct _IO_FILE
  4126 ;;		 -> NULL(0), 
  4127 ;;  cfmt            2   68[BANK0 ] PTR unsigned char 
  4128 ;;		 -> STR_1(17), 
  4129 ;; Return value:  Size  Location     Type
  4130 ;;                  2   62[BANK0 ] int 
  4131 ;; Registers used:
  4132 ;;		wreg, fsr0l, fsr0h, fsr1l, fsr1h, status,2, status,0, pclath, cstack
  4133 ;; Tracked objects:
  4134 ;;		On entry : 0/0
  4135 ;;		On exit  : 0/0
  4136 ;;		Unchanged: 0/0
  4137 ;; Data sizes:     COMMON   BANK0   BANK1   BANK2   BANK3   BANK4   BANK5   BANK6   BANK7   BANK8   BANK9  BANK10  BANK1
      +1  BANK12  BANK13  BANK14  BANK15  BANK16  BANK17  BANK18  BANK19  BANK20  BANK21  BANK22  BANK23  BANK24  BANK25
  4138 ;;      Params:         0       3       0       0       0       0       0       0       0       0       0       0       
      +0       0       0       0       0       0       0       0       0       0       0       0       0       0       0
  4139 ;;      Locals:         0       3       0       0       0       0       0       0       0       0       0       0       
      +0       0       0       0       0       0       0       0       0       0       0       0       0       0       0
  4140 ;;      Temps:          0       2       0       0       0       0       0       0       0       0       0       0       
      +0       0       0       0       0       0       0       0       0       0       0       0       0       0       0
  4141 ;;      Totals:         0       8       0       0       0       0       0       0       0       0       0       0       
      +0       0       0       0       0       0       0       0       0       0       0       0       0       0       0
  4142 ;;Total ram usage:        8 bytes
  4143 ;; Hardware stack levels used:    1
  4144 ;; Hardware stack levels required when called:   10
  4145 ;; This function calls:
  4146 ;;		_vfpfcnvrt
  4147 ;; This function is called by:
  4148 ;;		_printf
  4149 ;; This function uses a non-reentrant model
  4150 ;;
  4151                           
  4152                           
  4153                           ;psect for function _vfprintf
  4154  0565                     _vfprintf:	
  4155                           
  4156                           ;incstack = 0
  4157                           ; Regs used in _vfprintf: [wreg-fsr1h+status,2+status,0+pclath+cstack]
  4158                           ;vfprintf@fp stored from wreg
  4159  0565  0140               	movlb	0	; select bank0
  4160  0566  00E3               	movwf	vfprintf@fp
  4161  0567                     l1706:	
  4162                           
  4163                           ;C:\Program Files (x86)\Microchip\xc8\v2.10\pic\sources\c99\common\doprnt.c: 1368: int v
      +                          fprintf(FILE *fp, const char *fmt, va_list ap);C:\Program Files (x86)\Microchip\xc8\v2.1
      +                          0\pic\sources\c99\common\doprnt.c: 1369: {;C:\Program Files (x86)\Microchip\xc8\v2.10\pi
      +                          c\sources\c99\common\doprnt.c: 1371:     char *cfmt;;C:\Program Files (x86)\Microchip\xc
      +                          8\v2.10\pic\sources\c99\common\doprnt.c: 1373:     cfmt = (char *)fmt;
  4164  0567  085F               	movf	vfprintf@fmt+1,w
  4165  0568  00E5               	movwf	vfprintf@cfmt+1
  4166  0569  085E               	movf	vfprintf@fmt,w
  4167  056A  00E4               	movwf	vfprintf@cfmt
  4168  056B                     l1708:	
  4169                           
  4170                           ;C:\Program Files (x86)\Microchip\xc8\v2.10\pic\sources\c99\common\doprnt.c: 1374:     n
      +                          out = 0;
  4171  056B  0141               	movlb	1	; select bank1
  4172  056C  01A8               	clrf	_nout^(0+128)
  4173  056D  01A9               	clrf	(_nout+1)^(0+128)
  4174                           
  4175                           ;C:\Program Files (x86)\Microchip\xc8\v2.10\pic\sources\c99\common\doprnt.c: 1375:     w
      +                          hile (*cfmt) {
  4176  056E  2D83               	goto	l1712
  4177  056F                     l1710:	
  4178                           
  4179                           ;C:\Program Files (x86)\Microchip\xc8\v2.10\pic\sources\c99\common\doprnt.c: 1376:      
      +                             nout += vfpfcnvrt(fp, &cfmt, ap);
  4180  056F  3064               	movlw	(low (vfprintf@cfmt| 0))& (0+255)
  4181  0570  00E1               	movwf	??_vfprintf
  4182  0571  0861               	movf	??_vfprintf,w
  4183  0572  00CE               	movwf	vfpfcnvrt@fmt
  4184  0573  0860               	movf	vfprintf@ap,w
  4185  0574  00E2               	movwf	??_vfprintf+1
  4186  0575  0862               	movf	??_vfprintf+1,w
  4187  0576  00CF               	movwf	vfpfcnvrt@ap
  4188  0577  0863               	movf	vfprintf@fp,w
  4189  0578  3183  237A  3185   	fcall	_vfpfcnvrt
  4190  057B  0140               	movlb	0	; select bank0
  4191  057C  084E               	movf	?_vfpfcnvrt,w
  4192  057D  0141               	movlb	1	; select bank1
  4193  057E  07A8               	addwf	_nout^(0+128),f
  4194  057F  0140               	movlb	0	; select bank0
  4195  0580  084F               	movf	?_vfpfcnvrt+1,w
  4196  0581  0141               	movlb	1	; select bank1
  4197  0582  3DA9               	addwfc	(_nout+1)^(0+128),f
  4198  0583                     l1712:	
  4199                           
  4200                           ;C:\Program Files (x86)\Microchip\xc8\v2.10\pic\sources\c99\common\doprnt.c: 1375:     w
      +                          hile (*cfmt) {
  4201  0583  0140               	movlb	0	; select bank0
  4202  0584  0864               	movf	vfprintf@cfmt,w
  4203  0585  0084               	movwf	4
  4204  0586  0865               	movf	vfprintf@cfmt+1,w
  4205  0587  0085               	movwf	5
  4206  0588  0012               	moviw fsr0++
  4207  0589  1D03               	btfss	3,2
  4208  058A  2D8C               	goto	u1211
  4209  058B  2D8D               	goto	u1210
  4210  058C                     u1211:	
  4211  058C  2D6F               	goto	l1710
  4212  058D                     u1210:	
  4213  058D                     l1714:	
  4214                           
  4215                           ;C:\Program Files (x86)\Microchip\xc8\v2.10\pic\sources\c99\common\doprnt.c: 1378:     r
      +                          eturn nout;
  4216  058D  0141               	movlb	1	; select bank1
  4217  058E  0829               	movf	(_nout+1)^(0+128),w
  4218  058F  0140               	movlb	0	; select bank0
  4219  0590  00DF               	movwf	?_vfprintf+1
  4220  0591  0141               	movlb	1	; select bank1
  4221  0592  0828               	movf	_nout^(0+128),w
  4222  0593  0140               	movlb	0	; select bank0
  4223  0594  00DE               	movwf	?_vfprintf
  4224  0595                     l526:	
  4225  0595  0008               	return
  4226  0596                     __end_of_vfprintf:	
  4227                           
  4228                           	psect	text4
  4229  037A                     __ptext4:	
  4230 ;; *************** function _vfpfcnvrt *****************
  4231 ;; Defined at:
  4232 ;;		line 670 in file "C:\Program Files (x86)\Microchip\xc8\v2.10\pic\sources\c99\common\doprnt.c"
  4233 ;; Parameters:    Size  Location     Type
  4234 ;;  fp              1    wreg     PTR struct _IO_FILE
  4235 ;;		 -> NULL(0), 
  4236 ;;  fmt             1   46[BANK0 ] PTR PTR unsigned char 
  4237 ;;		 -> vfprintf@cfmt(2), 
  4238 ;;  ap              1   47[BANK0 ] PTR PTR void 
  4239 ;;		 -> printf@ap(1), 
  4240 ;; Auto vars:     Size  Location     Type
  4241 ;;  fp              1   61[BANK0 ] PTR struct _IO_FILE
  4242 ;;		 -> NULL(0), 
  4243 ;;  ll              8   53[BANK0 ] long long 
  4244 ;;  llu             8    0        unsigned long long 
  4245 ;;  f               4    0        unsigned long long 
  4246 ;;  ct              3    0        unsigned char [3]
  4247 ;;  vp              2    0        PTR void 
  4248 ;;  i               2    0        int 
  4249 ;;  done            2    0        int 
  4250 ;;  cp              2    0        PTR unsigned char 
  4251 ;;  c               1    0        unsigned char 
  4252 ;; Return value:  Size  Location     Type
  4253 ;;                  2   46[BANK0 ] int 
  4254 ;; Registers used:
  4255 ;;		wreg, fsr0l, fsr0h, fsr1l, fsr1h, status,2, status,0, pclath, cstack
  4256 ;; Tracked objects:
  4257 ;;		On entry : 0/0
  4258 ;;		On exit  : 0/0
  4259 ;;		Unchanged: 0/0
  4260 ;; Data sizes:     COMMON   BANK0   BANK1   BANK2   BANK3   BANK4   BANK5   BANK6   BANK7   BANK8   BANK9  BANK10  BANK1
      +1  BANK12  BANK13  BANK14  BANK15  BANK16  BANK17  BANK18  BANK19  BANK20  BANK21  BANK22  BANK23  BANK24  BANK25
  4261 ;;      Params:         0       2       0       0       0       0       0       0       0       0       0       0       
      +0       0       0       0       0       0       0       0       0       0       0       0       0       0       0
  4262 ;;      Locals:         0       9       0       0       0       0       0       0       0       0       0       0       
      +0       0       0       0       0       0       0       0       0       0       0       0       0       0       0
  4263 ;;      Temps:          0       5       0       0       0       0       0       0       0       0       0       0       
      +0       0       0       0       0       0       0       0       0       0       0       0       0       0       0
  4264 ;;      Totals:         0      16       0       0       0       0       0       0       0       0       0       0       
      +0       0       0       0       0       0       0       0       0       0       0       0       0       0       0
  4265 ;;Total ram usage:       16 bytes
  4266 ;; Hardware stack levels used:    1
  4267 ;; Hardware stack levels required when called:    9
  4268 ;; This function calls:
  4269 ;;		_dtoa
  4270 ;;		_fputc
  4271 ;; This function is called by:
  4272 ;;		_vfprintf
  4273 ;; This function uses a non-reentrant model
  4274 ;;
  4275                           
  4276                           
  4277                           ;psect for function _vfpfcnvrt
  4278  037A                     _vfpfcnvrt:	
  4279                           
  4280                           ;incstack = 0
  4281                           ; Regs used in _vfpfcnvrt: [wreg-fsr1h+status,2+status,0+pclath+cstack]
  4282                           ;vfpfcnvrt@fp stored from wreg
  4283  037A  0140               	movlb	0	; select bank0
  4284  037B  00DD               	movwf	vfpfcnvrt@fp
  4285  037C                     l1654:	
  4286                           
  4287                           ;C:\Program Files (x86)\Microchip\xc8\v2.10\pic\sources\c99\common\doprnt.c: 670: static
      +                           int vfpfcnvrt(FILE *fp, char *fmt[], va_list ap);C:\Program Files (x86)\Microchip\xc8\v
      +                          2.10\pic\sources\c99\common\doprnt.c: 671: {;C:\Program Files (x86)\Microchip\xc8\v2.10\
      +                          pic\sources\c99\common\doprnt.c: 672:     char c, *cp, ct[3];;C:\Program Files (x86)\Mic
      +                          rochip\xc8\v2.10\pic\sources\c99\common\doprnt.c: 673:     int done, i;;C:\Program Files
      +                           (x86)\Microchip\xc8\v2.10\pic\sources\c99\common\doprnt.c: 674:     long long ll;
  4288  037C  084E               	movf	vfpfcnvrt@fmt,w
  4289  037D  0086               	movwf	6
  4290  037E  0187               	clrf	7
  4291  037F  3F40               	moviw [0]fsr1
  4292  0380  00D0               	movwf	??_vfpfcnvrt
  4293  0381  3F41               	moviw [1]fsr1
  4294  0382  00D1               	movwf	??_vfpfcnvrt+1
  4295  0383  0850               	movf	??_vfpfcnvrt,w
  4296  0384  0084               	movwf	4
  4297  0385  0851               	movf	??_vfpfcnvrt+1,w
  4298  0386  0085               	movwf	5
  4299  0387  0012               	moviw fsr0++
  4300  0388  3A25               	xorlw	37
  4301  0389  1D03               	btfss	3,2
  4302  038A  2B8C               	goto	u1171
  4303  038B  2B8D               	goto	u1170
  4304  038C                     u1171:	
  4305  038C  2C33               	goto	l1690
  4306  038D                     u1170:	
  4307  038D                     l1656:	
  4308                           
  4309                           ;C:\Program Files (x86)\Microchip\xc8\v2.10\pic\sources\c99\common\doprnt.c: 681:       
      +                            ++*fmt;
  4310  038D  084E               	movf	vfpfcnvrt@fmt,w
  4311  038E  0086               	movwf	6
  4312  038F  0187               	clrf	7
  4313  0390  3001               	movlw	1
  4314  0391  0781               	addwf	1,f
  4315  0392  3141               	addfsr 1,1
  4316  0393  1803               	skipnc
  4317  0394  0A81               	incf	1,f
  4318  0395                     l1658:	
  4319                           
  4320                           ;C:\Program Files (x86)\Microchip\xc8\v2.10\pic\sources\c99\common\doprnt.c: 683:       
      +                            flags = width = 0;
  4321  0395  0141               	movlb	1	; select bank1
  4322  0396  01AA               	clrf	_width^(0+128)
  4323  0397  01AB               	clrf	(_width+1)^(0+128)
  4324  0398  0140               	movlb	0	; select bank0
  4325  0399  01EE               	clrf	_flags
  4326  039A  01EF               	clrf	_flags+1
  4327  039B                     l1660:	
  4328                           
  4329                           ;C:\Program Files (x86)\Microchip\xc8\v2.10\pic\sources\c99\common\doprnt.c: 684:       
      +                            prec = -1;
  4330  039B  30FF               	movlw	255
  4331  039C  0141               	movlb	1	; select bank1
  4332  039D  00AC               	movwf	_prec^(0+128)
  4333  039E  30FF               	movlw	255
  4334  039F  00AD               	movwf	(_prec^(0+128)+1)
  4335  03A0                     l1662:	
  4336                           
  4337                           ;C:\Program Files (x86)\Microchip\xc8\v2.10\pic\sources\c99\common\doprnt.c: 825:       
      +                            if ((*fmt[0] == 'd') || (*fmt[0] == 'i')) {
  4338  03A0  0140               	movlb	0	; select bank0
  4339  03A1  084E               	movf	vfpfcnvrt@fmt,w
  4340  03A2  0086               	movwf	6
  4341  03A3  0187               	clrf	7
  4342  03A4  3F40               	moviw [0]fsr1
  4343  03A5  00D0               	movwf	??_vfpfcnvrt
  4344  03A6  3F41               	moviw [1]fsr1
  4345  03A7  00D1               	movwf	??_vfpfcnvrt+1
  4346  03A8  0850               	movf	??_vfpfcnvrt,w
  4347  03A9  0084               	movwf	4
  4348  03AA  0851               	movf	??_vfpfcnvrt+1,w
  4349  03AB  0085               	movwf	5
  4350  03AC  0012               	moviw fsr0++
  4351  03AD  3A64               	xorlw	100
  4352  03AE  1903               	btfsc	3,2
  4353  03AF  2BB1               	goto	u1181
  4354  03B0  2BB2               	goto	u1180
  4355  03B1                     u1181:	
  4356  03B1  2BC3               	goto	l1666
  4357  03B2                     u1180:	
  4358  03B2                     l1664:	
  4359  03B2  084E               	movf	vfpfcnvrt@fmt,w
  4360  03B3  0086               	movwf	6
  4361  03B4  0187               	clrf	7
  4362  03B5  3F40               	moviw [0]fsr1
  4363  03B6  00D0               	movwf	??_vfpfcnvrt
  4364  03B7  3F41               	moviw [1]fsr1
  4365  03B8  00D1               	movwf	??_vfpfcnvrt+1
  4366  03B9  0850               	movf	??_vfpfcnvrt,w
  4367  03BA  0084               	movwf	4
  4368  03BB  0851               	movf	??_vfpfcnvrt+1,w
  4369  03BC  0085               	movwf	5
  4370  03BD  0012               	moviw fsr0++
  4371  03BE  3A69               	xorlw	105
  4372  03BF  1D03               	btfss	3,2
  4373  03C0  2BC2               	goto	u1191
  4374  03C1  2BC3               	goto	u1190
  4375  03C2                     u1191:	
  4376  03C2  2BFE               	goto	l1674
  4377  03C3                     u1190:	
  4378  03C3                     l1666:	
  4379                           
  4380                           ;C:\Program Files (x86)\Microchip\xc8\v2.10\pic\sources\c99\common\doprnt.c: 827:       
      +                                ++*fmt;
  4381  03C3  084E               	movf	vfpfcnvrt@fmt,w
  4382  03C4  0086               	movwf	6
  4383  03C5  0187               	clrf	7
  4384  03C6  3001               	movlw	1
  4385  03C7  0781               	addwf	1,f
  4386  03C8  3141               	addfsr 1,1
  4387  03C9  1803               	skipnc
  4388  03CA  0A81               	incf	1,f
  4389  03CB                     l1668:	
  4390                           
  4391                           ;C:\Program Files (x86)\Microchip\xc8\v2.10\pic\sources\c99\common\doprnt.c: 828:       
      +                                ll = (long long)(*(int *)__va_arg(*(int **)ap, (int)0));
  4392  03CB  084F               	movf	vfpfcnvrt@ap,w
  4393  03CC  0086               	movwf	6
  4394  03CD  0187               	clrf	7
  4395  03CE  0801               	movf	1,w
  4396  03CF  0084               	movwf	4
  4397  03D0  0185               	clrf	5
  4398  03D1  3002               	movlw	2
  4399  03D2  0781               	addwf	1,f
  4400  03D3  3F00               	moviw [0]fsr0
  4401  03D4  00D0               	movwf	??_vfpfcnvrt
  4402  03D5  3F01               	moviw [1]fsr0
  4403  03D6  00D1               	movwf	??_vfpfcnvrt+1
  4404  03D7  0850               	movf	??_vfpfcnvrt,w
  4405  03D8  00D5               	movwf	vfpfcnvrt@ll
  4406  03D9  0851               	movf	??_vfpfcnvrt+1,w
  4407  03DA  00D6               	movwf	vfpfcnvrt@ll+1
  4408  03DB  0D89               	rlf	9,f
  4409  03DC  3B89               	subwfb	9,f
  4410  03DD  0989               	comf	9,f
  4411  03DE  00D7               	movwf	vfpfcnvrt@ll+2
  4412  03DF  00D8               	movwf	vfpfcnvrt@ll+3
  4413  03E0  00D9               	movwf	vfpfcnvrt@ll+4
  4414  03E1  00DA               	movwf	vfpfcnvrt@ll+5
  4415  03E2  00DB               	movwf	vfpfcnvrt@ll+6
  4416  03E3  00DC               	movwf	vfpfcnvrt@ll+7
  4417  03E4                     l1670:	
  4418                           
  4419                           ;C:\Program Files (x86)\Microchip\xc8\v2.10\pic\sources\c99\common\doprnt.c: 830:       
      +                                return dtoa(fp, ll);
  4420  03E4  0855               	movf	vfpfcnvrt@ll,w
  4421  03E5  00B0               	movwf	dtoa@d
  4422  03E6  0856               	movf	vfpfcnvrt@ll+1,w
  4423  03E7  00B1               	movwf	dtoa@d+1
  4424  03E8  0857               	movf	vfpfcnvrt@ll+2,w
  4425  03E9  00B2               	movwf	dtoa@d+2
  4426  03EA  0858               	movf	vfpfcnvrt@ll+3,w
  4427  03EB  00B3               	movwf	dtoa@d+3
  4428  03EC  0859               	movf	vfpfcnvrt@ll+4,w
  4429  03ED  00B4               	movwf	dtoa@d+4
  4430  03EE  085A               	movf	vfpfcnvrt@ll+5,w
  4431  03EF  00B5               	movwf	dtoa@d+5
  4432  03F0  085B               	movf	vfpfcnvrt@ll+6,w
  4433  03F1  00B6               	movwf	dtoa@d+6
  4434  03F2  085C               	movf	vfpfcnvrt@ll+7,w
  4435  03F3  00B7               	movwf	dtoa@d+7
  4436  03F4  085D               	movf	vfpfcnvrt@fp,w
  4437  03F5  3180  2025  3183   	fcall	_dtoa
  4438  03F8  0140               	movlb	0	; select bank0
  4439  03F9  0831               	movf	?_dtoa+1,w
  4440  03FA  00CF               	movwf	?_vfpfcnvrt+1
  4441  03FB  0830               	movf	?_dtoa,w
  4442  03FC  00CE               	movwf	?_vfpfcnvrt
  4443  03FD  2C56               	goto	l519
  4444  03FE                     l1674:	
  4445                           
  4446                           ;C:\Program Files (x86)\Microchip\xc8\v2.10\pic\sources\c99\common\doprnt.c: 1350:      
      +                             if ((*fmt)[0] == '%') {
  4447  03FE  084E               	movf	vfpfcnvrt@fmt,w
  4448  03FF  0086               	movwf	6
  4449  0400  0187               	clrf	7
  4450  0401  3F40               	moviw [0]fsr1
  4451  0402  00D0               	movwf	??_vfpfcnvrt
  4452  0403  3F41               	moviw [1]fsr1
  4453  0404  00D1               	movwf	??_vfpfcnvrt+1
  4454  0405  0850               	movf	??_vfpfcnvrt,w
  4455  0406  0084               	movwf	4
  4456  0407  0851               	movf	??_vfpfcnvrt+1,w
  4457  0408  0085               	movwf	5
  4458  0409  0012               	moviw fsr0++
  4459  040A  3A25               	xorlw	37
  4460  040B  1D03               	btfss	3,2
  4461  040C  2C0E               	goto	u1201
  4462  040D  2C0F               	goto	u1200
  4463  040E                     u1201:	
  4464  040E  2C28               	goto	l1684
  4465  040F                     u1200:	
  4466  040F                     l1676:	
  4467                           
  4468                           ;C:\Program Files (x86)\Microchip\xc8\v2.10\pic\sources\c99\common\doprnt.c: 1351:      
      +                                 ++*fmt;
  4469  040F  084E               	movf	vfpfcnvrt@fmt,w
  4470  0410  0086               	movwf	6
  4471  0411  0187               	clrf	7
  4472  0412  3001               	movlw	1
  4473  0413  0781               	addwf	1,f
  4474  0414  3141               	addfsr 1,1
  4475  0415  1803               	skipnc
  4476  0416  0A81               	incf	1,f
  4477  0417                     l1678:	
  4478                           
  4479                           ;C:\Program Files (x86)\Microchip\xc8\v2.10\pic\sources\c99\common\doprnt.c: 1352:      
      +                                 fputc((int)'%', fp);
  4480  0417  3025               	movlw	37
  4481  0418  00F2               	movwf	fputc@c
  4482  0419  3000               	movlw	0
  4483  041A  00F3               	movwf	fputc@c+1
  4484  041B  085D               	movf	vfpfcnvrt@fp,w
  4485  041C  00D0               	movwf	??_vfpfcnvrt
  4486  041D  0850               	movf	??_vfpfcnvrt,w
  4487  041E  00F4               	movwf	fputc@fp
  4488  041F  3185  2526  3183   	fcall	_fputc
  4489  0422                     l1680:	
  4490                           
  4491                           ;C:\Program Files (x86)\Microchip\xc8\v2.10\pic\sources\c99\common\doprnt.c: 1353:      
      +                                 return 1;
  4492  0422  3001               	movlw	1
  4493  0423  0140               	movlb	0	; select bank0
  4494  0424  00CE               	movwf	?_vfpfcnvrt
  4495  0425  3000               	movlw	0
  4496  0426  00CF               	movwf	?_vfpfcnvrt+1
  4497  0427  2C56               	goto	l519
  4498  0428                     l1684:	
  4499                           
  4500                           ;C:\Program Files (x86)\Microchip\xc8\v2.10\pic\sources\c99\common\doprnt.c: 1357:      
      +                             ++*fmt;
  4501  0428  084E               	movf	vfpfcnvrt@fmt,w
  4502  0429  0086               	movwf	6
  4503  042A  0187               	clrf	7
  4504  042B  3001               	movlw	1
  4505  042C  0781               	addwf	1,f
  4506  042D  3141               	addfsr 1,1
  4507  042E  1803               	skipnc
  4508  042F  0A81               	incf	1,f
  4509  0430                     l1686:	
  4510                           
  4511                           ;C:\Program Files (x86)\Microchip\xc8\v2.10\pic\sources\c99\common\doprnt.c: 1358:      
      +                             return 0;
  4512  0430  01CE               	clrf	?_vfpfcnvrt
  4513  0431  01CF               	clrf	?_vfpfcnvrt+1
  4514  0432  2C56               	goto	l519
  4515  0433                     l1690:	
  4516                           
  4517                           ;C:\Program Files (x86)\Microchip\xc8\v2.10\pic\sources\c99\common\doprnt.c: 1362:     f
      +                          putc((int)(*fmt)[0], fp);
  4518  0433  084E               	movf	vfpfcnvrt@fmt,w
  4519  0434  0086               	movwf	6
  4520  0435  0187               	clrf	7
  4521  0436  3F40               	moviw [0]fsr1
  4522  0437  00D0               	movwf	??_vfpfcnvrt
  4523  0438  3F41               	moviw [1]fsr1
  4524  0439  00D1               	movwf	??_vfpfcnvrt+1
  4525  043A  0850               	movf	??_vfpfcnvrt,w
  4526  043B  0084               	movwf	4
  4527  043C  0851               	movf	??_vfpfcnvrt+1,w
  4528  043D  0085               	movwf	5
  4529  043E  0800               	movf	0,w	;code access
  4530  043F  00D2               	movwf	??_vfpfcnvrt+2
  4531  0440  01D3               	clrf	??_vfpfcnvrt+3
  4532  0441  0852               	movf	??_vfpfcnvrt+2,w
  4533  0442  00F2               	movwf	fputc@c
  4534  0443  0853               	movf	??_vfpfcnvrt+3,w
  4535  0444  00F3               	movwf	fputc@c+1
  4536  0445  085D               	movf	vfpfcnvrt@fp,w
  4537  0446  00D4               	movwf	??_vfpfcnvrt+4
  4538  0447  0854               	movf	??_vfpfcnvrt+4,w
  4539  0448  00F4               	movwf	fputc@fp
  4540  0449  3185  2526  3183   	fcall	_fputc
  4541  044C                     l1692:	
  4542                           
  4543                           ;C:\Program Files (x86)\Microchip\xc8\v2.10\pic\sources\c99\common\doprnt.c: 1363:     +
      +                          +*fmt;
  4544  044C  0140               	movlb	0	; select bank0
  4545  044D  084E               	movf	vfpfcnvrt@fmt,w
  4546  044E  0086               	movwf	6
  4547  044F  0187               	clrf	7
  4548  0450  3001               	movlw	1
  4549  0451  0781               	addwf	1,f
  4550  0452  3141               	addfsr 1,1
  4551  0453  1803               	skipnc
  4552  0454  0A81               	incf	1,f
  4553  0455  2C22               	goto	l1680
  4554  0456                     l519:	
  4555  0456  0008               	return
  4556  0457                     __end_of_vfpfcnvrt:	
  4557                           
  4558                           	psect	text5
  4559  0025                     __ptext5:	
  4560 ;; *************** function _dtoa *****************
  4561 ;; Defined at:
  4562 ;;		line 274 in file "C:\Program Files (x86)\Microchip\xc8\v2.10\pic\sources\c99\common\doprnt.c"
  4563 ;; Parameters:    Size  Location     Type
  4564 ;;  fp              1    wreg     PTR struct _IO_FILE
  4565 ;;		 -> NULL(0), 
  4566 ;;  d               8   16[BANK0 ] long long 
  4567 ;; Auto vars:     Size  Location     Type
  4568 ;;  fp              1   31[BANK0 ] PTR struct _IO_FILE
  4569 ;;		 -> NULL(0), 
  4570 ;;  n               8   36[BANK0 ] long long 
  4571 ;;  i               2   44[BANK0 ] int 
  4572 ;;  s               2   34[BANK0 ] int 
  4573 ;;  w               2   32[BANK0 ] int 
  4574 ;;  p               2   29[BANK0 ] int 
  4575 ;; Return value:  Size  Location     Type
  4576 ;;                  2   16[BANK0 ] int 
  4577 ;; Registers used:
  4578 ;;		wreg, fsr1l, fsr1h, status,2, status,0, pclath, cstack
  4579 ;; Tracked objects:
  4580 ;;		On entry : 0/0
  4581 ;;		On exit  : 0/0
  4582 ;;		Unchanged: 0/0
  4583 ;; Data sizes:     COMMON   BANK0   BANK1   BANK2   BANK3   BANK4   BANK5   BANK6   BANK7   BANK8   BANK9  BANK10  BANK1
      +1  BANK12  BANK13  BANK14  BANK15  BANK16  BANK17  BANK18  BANK19  BANK20  BANK21  BANK22  BANK23  BANK24  BANK25
  4584 ;;      Params:         0       8       0       0       0       0       0       0       0       0       0       0       
      +0       0       0       0       0       0       0       0       0       0       0       0       0       0       0
  4585 ;;      Locals:         0      19       0       0       0       0       0       0       0       0       0       0       
      +0       0       0       0       0       0       0       0       0       0       0       0       0       0       0
  4586 ;;      Temps:          0       3       0       0       0       0       0       0       0       0       0       0       
      +0       0       0       0       0       0       0       0       0       0       0       0       0       0       0
  4587 ;;      Totals:         0      30       0       0       0       0       0       0       0       0       0       0       
      +0       0       0       0       0       0       0       0       0       0       0       0       0       0       0
  4588 ;;Total ram usage:       30 bytes
  4589 ;; Hardware stack levels used:    1
  4590 ;; Hardware stack levels required when called:    8
  4591 ;; This function calls:
  4592 ;;		___aodiv
  4593 ;;		___aomod
  4594 ;;		_abs
  4595 ;;		_pad
  4596 ;; This function is called by:
  4597 ;;		_vfpfcnvrt
  4598 ;; This function uses a non-reentrant model
  4599 ;;
  4600                           
  4601                           
  4602                           ;psect for function _dtoa
  4603  0025                     _dtoa:	
  4604                           
  4605                           ;incstack = 0
  4606                           ; Regs used in _dtoa: [wreg+fsr1l+fsr1h+status,2+status,0+pclath+cstack]
  4607                           ;dtoa@fp stored from wreg
  4608  0025  0140               	movlb	0	; select bank0
  4609  0026  00BF               	movwf	dtoa@fp
  4610  0027                     l1596:	
  4611                           
  4612                           ;C:\Program Files (x86)\Microchip\xc8\v2.10\pic\sources\c99\common\doprnt.c: 274: static
      +                           int dtoa(FILE *fp, long long d);C:\Program Files (x86)\Microchip\xc8\v2.10\pic\sources\
      +                          c99\common\doprnt.c: 275: {;C:\Program Files (x86)\Microchip\xc8\v2.10\pic\sources\c99\c
      +                          ommon\doprnt.c: 276:     int i, p, s, w;;C:\Program Files (x86)\Microchip\xc8\v2.10\pic\
      +                          sources\c99\common\doprnt.c: 277:     long long n;;C:\Program Files (x86)\Microchip\xc8\
      +                          v2.10\pic\sources\c99\common\doprnt.c: 280:     n = d;
  4613  0027  0830               	movf	dtoa@d,w
  4614  0028  00C4               	movwf	dtoa@n
  4615  0029  0831               	movf	dtoa@d+1,w
  4616  002A  00C5               	movwf	dtoa@n+1
  4617  002B  0832               	movf	dtoa@d+2,w
  4618  002C  00C6               	movwf	dtoa@n+2
  4619  002D  0833               	movf	dtoa@d+3,w
  4620  002E  00C7               	movwf	dtoa@n+3
  4621  002F  0834               	movf	dtoa@d+4,w
  4622  0030  00C8               	movwf	dtoa@n+4
  4623  0031  0835               	movf	dtoa@d+5,w
  4624  0032  00C9               	movwf	dtoa@n+5
  4625  0033  0836               	movf	dtoa@d+6,w
  4626  0034  00CA               	movwf	dtoa@n+6
  4627  0035  0837               	movf	dtoa@d+7,w
  4628  0036  00CB               	movwf	dtoa@n+7
  4629  0037                     l1598:	
  4630                           
  4631                           ;C:\Program Files (x86)\Microchip\xc8\v2.10\pic\sources\c99\common\doprnt.c: 281:     s 
      +                          = n < 0 ? 1 : 0;
  4632  0037  3044               	movlw	low dtoa@n
  4633  0038  0086               	movwf	6
  4634  0039  3000               	movlw	high dtoa@n
  4635  003A  0087               	movwf	7
  4636  003B  3F47               	moviw [7]fsr1
  4637  003C  00B8               	movwf	??_dtoa
  4638  003D  1BB8               	btfsc	??_dtoa,7
  4639  003E  2840               	goto	u1011
  4640  003F  2842               	goto	u1010
  4641  0040                     u1011:	
  4642  0040  3001               	movlw	1
  4643  0041  2843               	goto	u1020
  4644  0042                     u1010:	
  4645  0042  3000               	movlw	0
  4646  0043                     u1020:	
  4647  0043  0140               	movlb	0	; select bank0
  4648  0044  00B9               	movwf	??_dtoa+1
  4649  0045  01BA               	clrf	??_dtoa+2
  4650  0046  0839               	movf	??_dtoa+1,w
  4651  0047  00C2               	movwf	dtoa@s
  4652  0048  083A               	movf	??_dtoa+2,w
  4653  0049  00C3               	movwf	dtoa@s+1
  4654  004A                     l1600:	
  4655                           
  4656                           ;C:\Program Files (x86)\Microchip\xc8\v2.10\pic\sources\c99\common\doprnt.c: 282:     if
      +                           (s) {
  4657  004A  0842               	movf	dtoa@s,w
  4658  004B  0443               	iorwf	dtoa@s+1,w
  4659  004C  1903               	btfsc	3,2
  4660  004D  284F               	goto	u1031
  4661  004E  2850               	goto	u1030
  4662  004F                     u1031:	
  4663  004F  286E               	goto	l489
  4664  0050                     u1030:	
  4665  0050                     l1602:	
  4666                           
  4667                           ;C:\Program Files (x86)\Microchip\xc8\v2.10\pic\sources\c99\common\doprnt.c: 283:       
      +                            n = -n;
  4668  0050  09C4               	comf	dtoa@n,f
  4669  0051  09C5               	comf	dtoa@n+1,f
  4670  0052  09C6               	comf	dtoa@n+2,f
  4671  0053  09C7               	comf	dtoa@n+3,f
  4672  0054  09C8               	comf	dtoa@n+4,f
  4673  0055  09C9               	comf	dtoa@n+5,f
  4674  0056  09CA               	comf	dtoa@n+6,f
  4675  0057  09CB               	comf	dtoa@n+7,f
  4676  0058  0AC4               	incf	dtoa@n,f
  4677  0059  1D03               	skipz
  4678  005A  286E               	goto	u104lld
  4679  005B  0AC5               	incf	dtoa@n+1,f
  4680  005C  1D03               	skipz
  4681  005D  286E               	goto	u104lld
  4682  005E  0AC6               	incf	dtoa@n+2,f
  4683  005F  1D03               	skipz
  4684  0060  286E               	goto	u104lld
  4685  0061  0AC7               	incf	dtoa@n+3,f
  4686  0062  1D03               	skipz
  4687  0063  286E               	goto	u104lld
  4688  0064  0AC8               	incf	dtoa@n+4,f
  4689  0065  1D03               	skipz
  4690  0066  286E               	goto	u104lld
  4691  0067  0AC9               	incf	dtoa@n+5,f
  4692  0068  1D03               	skipz
  4693  0069  286E               	goto	u104lld
  4694  006A  0ACA               	incf	dtoa@n+6,f
  4695  006B  1D03               	skipz
  4696  006C  286E               	goto	u104lld
  4697  006D  0ACB               	incf	dtoa@n+7,f
  4698  006E                     u104lld:	
  4699  006E                     l489:	
  4700                           ;C:\Program Files (x86)\Microchip\xc8\v2.10\pic\sources\c99\common\doprnt.c: 284:     }
  4701                           
  4702                           
  4703                           ;C:\Program Files (x86)\Microchip\xc8\v2.10\pic\sources\c99\common\doprnt.c: 287:     if
      +                           (!(prec < 0)) {
  4704  006E  0141               	movlb	1	; select bank1
  4705  006F  1BAD               	btfsc	(_prec+1)^(0+128),7
  4706  0070  2872               	goto	u1051
  4707  0071  2873               	goto	u1050
  4708  0072                     u1051:	
  4709  0072  2878               	goto	l490
  4710  0073                     u1050:	
  4711  0073                     l1604:	
  4712                           
  4713                           ;C:\Program Files (x86)\Microchip\xc8\v2.10\pic\sources\c99\common\doprnt.c: 288:       
      +                            flags &= ~(1 << 1);
  4714  0073  30FD               	movlw	253
  4715  0074  0140               	movlb	0	; select bank0
  4716  0075  05EE               	andwf	_flags,f
  4717  0076  30FF               	movlw	255
  4718  0077  05EF               	andwf	_flags+1,f
  4719  0078                     l490:	
  4720                           ;C:\Program Files (x86)\Microchip\xc8\v2.10\pic\sources\c99\common\doprnt.c: 289:     }
  4721                           
  4722                           
  4723                           ;C:\Program Files (x86)\Microchip\xc8\v2.10\pic\sources\c99\common\doprnt.c: 290:     p 
      +                          = (0 < prec) ? prec : 1;
  4724  0078  0141               	movlb	1	; select bank1
  4725  0079  082D               	movf	(_prec+1)^(0+128),w
  4726  007A  3A80               	xorlw	128
  4727  007B  0140               	movlb	0	; select bank0
  4728  007C  00B8               	movwf	??_dtoa
  4729  007D  3080               	movlw	128
  4730  007E  0238               	subwf	??_dtoa,w
  4731  007F  1D03               	skipz
  4732  0080  2884               	goto	u1065
  4733  0081  3001               	movlw	1
  4734  0082  0141               	movlb	1	; select bank1
  4735  0083  022C               	subwf	_prec^(0+128),w
  4736  0084                     u1065:	
  4737  0084  1803               	skipnc
  4738  0085  2887               	goto	u1061
  4739  0086  2888               	goto	u1060
  4740  0087                     u1061:	
  4741  0087  288E               	goto	l1608
  4742  0088                     u1060:	
  4743  0088                     l1606:	
  4744  0088  3001               	movlw	1
  4745  0089  0140               	movlb	0	; select bank0
  4746  008A  00BD               	movwf	dtoa@p
  4747  008B  3000               	movlw	0
  4748  008C  00BE               	movwf	dtoa@p+1
  4749  008D  2896               	goto	l494
  4750  008E                     l1608:	
  4751  008E  0141               	movlb	1	; select bank1
  4752  008F  082D               	movf	(_prec+1)^(0+128),w
  4753  0090  0140               	movlb	0	; select bank0
  4754  0091  00BE               	movwf	dtoa@p+1
  4755  0092  0141               	movlb	1	; select bank1
  4756  0093  082C               	movf	_prec^(0+128),w
  4757  0094  0140               	movlb	0	; select bank0
  4758  0095  00BD               	movwf	dtoa@p
  4759  0096                     l494:	
  4760                           
  4761                           ;C:\Program Files (x86)\Microchip\xc8\v2.10\pic\sources\c99\common\doprnt.c: 291:     w 
      +                          = width;
  4762  0096  0141               	movlb	1	; select bank1
  4763  0097  082B               	movf	(_width+1)^(0+128),w
  4764  0098  0140               	movlb	0	; select bank0
  4765  0099  00C1               	movwf	dtoa@w+1
  4766  009A  0141               	movlb	1	; select bank1
  4767  009B  082A               	movf	_width^(0+128),w
  4768  009C  0140               	movlb	0	; select bank0
  4769  009D  00C0               	movwf	dtoa@w
  4770  009E                     l1610:	
  4771                           
  4772                           ;C:\Program Files (x86)\Microchip\xc8\v2.10\pic\sources\c99\common\doprnt.c: 292:     if
      +                           (s || (flags & (1 << 2))) {
  4773  009E  0842               	movf	dtoa@s,w
  4774  009F  0443               	iorwf	dtoa@s+1,w
  4775  00A0  1D03               	btfss	3,2
  4776  00A1  28A3               	goto	u1071
  4777  00A2  28A4               	goto	u1070
  4778  00A3                     u1071:	
  4779  00A3  28A8               	goto	l1614
  4780  00A4                     u1070:	
  4781  00A4                     l1612:	
  4782  00A4  1D6E               	btfss	_flags,2
  4783  00A5  28A7               	goto	u1081
  4784  00A6  28A8               	goto	u1080
  4785  00A7                     u1081:	
  4786  00A7  28AC               	goto	l495
  4787  00A8                     u1080:	
  4788  00A8                     l1614:	
  4789                           
  4790                           ;C:\Program Files (x86)\Microchip\xc8\v2.10\pic\sources\c99\common\doprnt.c: 293:       
      +                            --w;
  4791  00A8  30FF               	movlw	255
  4792  00A9  07C0               	addwf	dtoa@w,f
  4793  00AA  30FF               	movlw	255
  4794  00AB  3DC1               	addwfc	dtoa@w+1,f
  4795  00AC                     l495:	
  4796                           ;C:\Program Files (x86)\Microchip\xc8\v2.10\pic\sources\c99\common\doprnt.c: 294:     }
  4797                           
  4798                           
  4799                           ;C:\Program Files (x86)\Microchip\xc8\v2.10\pic\sources\c99\common\doprnt.c: 297:     i 
      +                          = sizeof(dbuf) - 1;
  4800  00AC  301F               	movlw	31
  4801  00AD  00CC               	movwf	dtoa@i
  4802  00AE  3000               	movlw	0
  4803  00AF  00CD               	movwf	dtoa@i+1
  4804  00B0                     l1616:	
  4805                           
  4806                           ;C:\Program Files (x86)\Microchip\xc8\v2.10\pic\sources\c99\common\doprnt.c: 298:     db
      +                          uf[i] = '\0';
  4807  00B0  0141               	movlb	1	; select bank1
  4808  00B1  01D8               	clrf	(_dbuf^(0+128)+31)
  4809                           
  4810                           ;C:\Program Files (x86)\Microchip\xc8\v2.10\pic\sources\c99\common\doprnt.c: 299:     wh
      +                          ile (!(i < 1) && (n || (0 < p) || ((0 < w) && (flags & (1 << 1))))) {
  4811  00B2  291B               	goto	l498
  4812  00B3                     l1618:	
  4813                           
  4814                           ;C:\Program Files (x86)\Microchip\xc8\v2.10\pic\sources\c99\common\doprnt.c: 300:       
      +                            --i;
  4815  00B3  30FF               	movlw	255
  4816  00B4  0140               	movlb	0	; select bank0
  4817  00B5  07CC               	addwf	dtoa@i,f
  4818  00B6  30FF               	movlw	255
  4819  00B7  3DCD               	addwfc	dtoa@i+1,f
  4820  00B8                     l1620:	
  4821                           
  4822                           ;C:\Program Files (x86)\Microchip\xc8\v2.10\pic\sources\c99\common\doprnt.c: 301:       
      +                            dbuf[i] = '0' + abs(n % 10);
  4823  00B8  300A               	movlw	10
  4824  00B9  00A0               	movwf	___aomod@divisor
  4825  00BA  01A1               	clrf	___aomod@divisor+1
  4826  00BB  01A2               	clrf	___aomod@divisor+2
  4827  00BC  01A3               	clrf	___aomod@divisor+3
  4828  00BD  01A4               	clrf	___aomod@divisor+4
  4829  00BE  01A5               	clrf	___aomod@divisor+5
  4830  00BF  01A6               	clrf	___aomod@divisor+6
  4831  00C0  01A7               	clrf	___aomod@divisor+7
  4832  00C1  0844               	movf	dtoa@n,w
  4833  00C2  00A8               	movwf	___aomod@dividend
  4834  00C3  0845               	movf	dtoa@n+1,w
  4835  00C4  00A9               	movwf	___aomod@dividend+1
  4836  00C5  0846               	movf	dtoa@n+2,w
  4837  00C6  00AA               	movwf	___aomod@dividend+2
  4838  00C7  0847               	movf	dtoa@n+3,w
  4839  00C8  00AB               	movwf	___aomod@dividend+3
  4840  00C9  0848               	movf	dtoa@n+4,w
  4841  00CA  00AC               	movwf	___aomod@dividend+4
  4842  00CB  0849               	movf	dtoa@n+5,w
  4843  00CC  00AD               	movwf	___aomod@dividend+5
  4844  00CD  084A               	movf	dtoa@n+6,w
  4845  00CE  00AE               	movwf	___aomod@dividend+6
  4846  00CF  084B               	movf	dtoa@n+7,w
  4847  00D0  00AF               	movwf	___aomod@dividend+7
  4848  00D1  3182  2290  3180   	fcall	___aomod
  4849  00D4  0140               	movlb	0	; select bank0
  4850  00D5  0821               	movf	?___aomod+1,w
  4851  00D6  00F4               	movwf	abs@a+1
  4852  00D7  0820               	movf	?___aomod,w
  4853  00D8  00F3               	movwf	abs@a
  4854  00D9  3186  263C  3180   	fcall	_abs
  4855  00DC  0873               	movf	?_abs,w
  4856  00DD  3E30               	addlw	48
  4857  00DE  0140               	movlb	0	; select bank0
  4858  00DF  00B8               	movwf	??_dtoa
  4859  00E0  084C               	movf	dtoa@i,w
  4860  00E1  3EB9               	addlw	(low (_dbuf| 0))& (0+255)
  4861  00E2  0086               	movwf	6
  4862  00E3  0187               	clrf	7
  4863  00E4  0838               	movf	??_dtoa,w
  4864  00E5  0081               	movwf	1
  4865  00E6                     l1622:	
  4866                           
  4867                           ;C:\Program Files (x86)\Microchip\xc8\v2.10\pic\sources\c99\common\doprnt.c: 302:       
      +                            --p;
  4868  00E6  30FF               	movlw	255
  4869  00E7  07BD               	addwf	dtoa@p,f
  4870  00E8  30FF               	movlw	255
  4871  00E9  3DBE               	addwfc	dtoa@p+1,f
  4872  00EA                     l1624:	
  4873                           
  4874                           ;C:\Program Files (x86)\Microchip\xc8\v2.10\pic\sources\c99\common\doprnt.c: 303:       
      +                            --w;
  4875  00EA  30FF               	movlw	255
  4876  00EB  07C0               	addwf	dtoa@w,f
  4877  00EC  30FF               	movlw	255
  4878  00ED  3DC1               	addwfc	dtoa@w+1,f
  4879  00EE                     l1626:	
  4880                           
  4881                           ;C:\Program Files (x86)\Microchip\xc8\v2.10\pic\sources\c99\common\doprnt.c: 304:       
      +                            n = n / 10;
  4882  00EE  300A               	movlw	10
  4883  00EF  00A0               	movwf	___aodiv@divisor
  4884  00F0  01A1               	clrf	___aodiv@divisor+1
  4885  00F1  01A2               	clrf	___aodiv@divisor+2
  4886  00F2  01A3               	clrf	___aodiv@divisor+3
  4887  00F3  01A4               	clrf	___aodiv@divisor+4
  4888  00F4  01A5               	clrf	___aodiv@divisor+5
  4889  00F5  01A6               	clrf	___aodiv@divisor+6
  4890  00F6  01A7               	clrf	___aodiv@divisor+7
  4891  00F7  0844               	movf	dtoa@n,w
  4892  00F8  00A8               	movwf	___aodiv@dividend
  4893  00F9  0845               	movf	dtoa@n+1,w
  4894  00FA  00A9               	movwf	___aodiv@dividend+1
  4895  00FB  0846               	movf	dtoa@n+2,w
  4896  00FC  00AA               	movwf	___aodiv@dividend+2
  4897  00FD  0847               	movf	dtoa@n+3,w
  4898  00FE  00AB               	movwf	___aodiv@dividend+3
  4899  00FF  0848               	movf	dtoa@n+4,w
  4900  0100  00AC               	movwf	___aodiv@dividend+4
  4901  0101  0849               	movf	dtoa@n+5,w
  4902  0102  00AD               	movwf	___aodiv@dividend+5
  4903  0103  084A               	movf	dtoa@n+6,w
  4904  0104  00AE               	movwf	___aodiv@dividend+6
  4905  0105  084B               	movf	dtoa@n+7,w
  4906  0106  00AF               	movwf	___aodiv@dividend+7
  4907  0107  3181  218F  3180   	fcall	___aodiv
  4908  010A  0140               	movlb	0	; select bank0
  4909  010B  0820               	movf	?___aodiv,w
  4910  010C  00C4               	movwf	dtoa@n
  4911  010D  0821               	movf	?___aodiv+1,w
  4912  010E  00C5               	movwf	dtoa@n+1
  4913  010F  0822               	movf	?___aodiv+2,w
  4914  0110  00C6               	movwf	dtoa@n+2
  4915  0111  0823               	movf	?___aodiv+3,w
  4916  0112  00C7               	movwf	dtoa@n+3
  4917  0113  0824               	movf	?___aodiv+4,w
  4918  0114  00C8               	movwf	dtoa@n+4
  4919  0115  0825               	movf	?___aodiv+5,w
  4920  0116  00C9               	movwf	dtoa@n+5
  4921  0117  0826               	movf	?___aodiv+6,w
  4922  0118  00CA               	movwf	dtoa@n+6
  4923  0119  0827               	movf	?___aodiv+7,w
  4924  011A  00CB               	movwf	dtoa@n+7
  4925  011B                     l498:	
  4926                           ;C:\Program Files (x86)\Microchip\xc8\v2.10\pic\sources\c99\common\doprnt.c: 305:     }
  4927                           
  4928                           
  4929                           ;C:\Program Files (x86)\Microchip\xc8\v2.10\pic\sources\c99\common\doprnt.c: 299:     wh
      +                          ile (!(i < 1) && (n || (0 < p) || ((0 < w) && (flags & (1 << 1))))) {
  4930  011B  0140               	movlb	0	; select bank0
  4931  011C  084D               	movf	dtoa@i+1,w
  4932  011D  3A80               	xorlw	128
  4933  011E  00B8               	movwf	??_dtoa
  4934  011F  3080               	movlw	128
  4935  0120  0238               	subwf	??_dtoa,w
  4936  0121  1D03               	skipz
  4937  0122  2925               	goto	u1095
  4938  0123  3001               	movlw	1
  4939  0124  024C               	subwf	dtoa@i,w
  4940  0125                     u1095:	
  4941  0125  1C03               	skipc
  4942  0126  2928               	goto	u1091
  4943  0127  2929               	goto	u1090
  4944  0128                     u1091:	
  4945  0128  2956               	goto	l1636
  4946  0129                     u1090:	
  4947  0129                     l1628:	
  4948  0129  0140               	movlb	0	; select bank0
  4949  012A  0844               	movf	dtoa@n,w
  4950  012B  0445               	iorwf	dtoa@n+1,w
  4951  012C  0446               	iorwf	dtoa@n+2,w
  4952  012D  0447               	iorwf	dtoa@n+3,w
  4953  012E  0448               	iorwf	dtoa@n+4,w
  4954  012F  0449               	iorwf	dtoa@n+5,w
  4955  0130  044A               	iorwf	dtoa@n+6,w
  4956  0131  044B               	iorwf	dtoa@n+7,w
  4957  0132  1D03               	skipz
  4958  0133  2935               	goto	u1101
  4959  0134  2936               	goto	u1100
  4960  0135                     u1101:	
  4961  0135  28B3               	goto	l1618
  4962  0136                     u1100:	
  4963  0136                     l1630:	
  4964  0136  083E               	movf	dtoa@p+1,w
  4965  0137  3A80               	xorlw	128
  4966  0138  00B8               	movwf	??_dtoa
  4967  0139  3080               	movlw	128
  4968  013A  0238               	subwf	??_dtoa,w
  4969  013B  1D03               	skipz
  4970  013C  293F               	goto	u1115
  4971  013D  3001               	movlw	1
  4972  013E  023D               	subwf	dtoa@p,w
  4973  013F                     u1115:	
  4974  013F  1803               	skipnc
  4975  0140  2942               	goto	u1111
  4976  0141  2943               	goto	u1110
  4977  0142                     u1111:	
  4978  0142  28B3               	goto	l1618
  4979  0143                     u1110:	
  4980  0143                     l1632:	
  4981  0143  0140               	movlb	0	; select bank0
  4982  0144  0841               	movf	dtoa@w+1,w
  4983  0145  3A80               	xorlw	128
  4984  0146  00B8               	movwf	??_dtoa
  4985  0147  3080               	movlw	128
  4986  0148  0238               	subwf	??_dtoa,w
  4987  0149  1D03               	skipz
  4988  014A  294D               	goto	u1125
  4989  014B  3001               	movlw	1
  4990  014C  0240               	subwf	dtoa@w,w
  4991  014D                     u1125:	
  4992  014D  1C03               	skipc
  4993  014E  2950               	goto	u1121
  4994  014F  2951               	goto	u1120
  4995  0150                     u1121:	
  4996  0150  2956               	goto	l1636
  4997  0151                     u1120:	
  4998  0151                     l1634:	
  4999  0151  0140               	movlb	0	; select bank0
  5000  0152  18EE               	btfsc	_flags,1
  5001  0153  2955               	goto	u1131
  5002  0154  2956               	goto	u1130
  5003  0155                     u1131:	
  5004  0155  28B3               	goto	l1618
  5005  0156                     u1130:	
  5006  0156                     l1636:	
  5007                           
  5008                           ;C:\Program Files (x86)\Microchip\xc8\v2.10\pic\sources\c99\common\doprnt.c: 308:     if
      +                           (s || (flags & (1 << 2))) {
  5009  0156  0140               	movlb	0	; select bank0
  5010  0157  0842               	movf	dtoa@s,w
  5011  0158  0443               	iorwf	dtoa@s+1,w
  5012  0159  1D03               	btfss	3,2
  5013  015A  295C               	goto	u1141
  5014  015B  295D               	goto	u1140
  5015  015C                     u1141:	
  5016  015C  2961               	goto	l1640
  5017  015D                     u1140:	
  5018  015D                     l1638:	
  5019  015D  1D6E               	btfss	_flags,2
  5020  015E  2960               	goto	u1151
  5021  015F  2961               	goto	u1150
  5022  0160                     u1151:	
  5023  0160  297C               	goto	l1650
  5024  0161                     u1150:	
  5025  0161                     l1640:	
  5026                           
  5027                           ;C:\Program Files (x86)\Microchip\xc8\v2.10\pic\sources\c99\common\doprnt.c: 309:       
      +                            --i;
  5028  0161  30FF               	movlw	255
  5029  0162  07CC               	addwf	dtoa@i,f
  5030  0163  30FF               	movlw	255
  5031  0164  3DCD               	addwfc	dtoa@i+1,f
  5032  0165                     l1642:	
  5033                           
  5034                           ;C:\Program Files (x86)\Microchip\xc8\v2.10\pic\sources\c99\common\doprnt.c: 310:       
      +                            dbuf[i] = s ? '-' : '+';
  5035  0165  0842               	movf	dtoa@s,w
  5036  0166  0443               	iorwf	dtoa@s+1,w
  5037  0167  1D03               	btfss	3,2
  5038  0168  296A               	goto	u1161
  5039  0169  296B               	goto	u1160
  5040  016A                     u1161:	
  5041  016A  2970               	goto	l1646
  5042  016B                     u1160:	
  5043  016B                     l1644:	
  5044  016B  302B               	movlw	43
  5045  016C  00BB               	movwf	_dtoa$687
  5046  016D  3000               	movlw	0
  5047  016E  00BC               	movwf	_dtoa$687+1
  5048  016F  2974               	goto	l1648
  5049  0170                     l1646:	
  5050  0170  302D               	movlw	45
  5051  0171  00BB               	movwf	_dtoa$687
  5052  0172  3000               	movlw	0
  5053  0173  00BC               	movwf	_dtoa$687+1
  5054  0174                     l1648:	
  5055  0174  083B               	movf	_dtoa$687,w
  5056  0175  00B8               	movwf	??_dtoa
  5057  0176  084C               	movf	dtoa@i,w
  5058  0177  3EB9               	addlw	(low (_dbuf| 0))& (0+255)
  5059  0178  0086               	movwf	6
  5060  0179  0187               	clrf	7
  5061  017A  0838               	movf	??_dtoa,w
  5062  017B  0081               	movwf	1
  5063  017C                     l1650:	
  5064                           
  5065                           ;C:\Program Files (x86)\Microchip\xc8\v2.10\pic\sources\c99\common\doprnt.c: 314:     re
      +                          turn pad(fp, &dbuf[i], w);
  5066  017C  084C               	movf	dtoa@i,w
  5067  017D  3EB9               	addlw	(low (_dbuf| 0))& (0+255)
  5068  017E  00B8               	movwf	??_dtoa
  5069  017F  0838               	movf	??_dtoa,w
  5070  0180  00A4               	movwf	pad@buf
  5071  0181  0841               	movf	dtoa@w+1,w
  5072  0182  00A6               	movwf	pad@p+1
  5073  0183  0840               	movf	dtoa@w,w
  5074  0184  00A5               	movwf	pad@p
  5075  0185  083F               	movf	dtoa@fp,w
  5076  0186  3184  24D0  3180   	fcall	_pad
  5077  0189  0140               	movlb	0	; select bank0
  5078  018A  0825               	movf	?_pad+1,w
  5079  018B  00B1               	movwf	?_dtoa+1
  5080  018C  0824               	movf	?_pad,w
  5081  018D  00B0               	movwf	?_dtoa
  5082  018E                     l512:	
  5083  018E  0008               	return
  5084  018F                     __end_of_dtoa:	
  5085                           
  5086                           	psect	text6
  5087  04D0                     __ptext6:	
  5088 ;; *************** function _pad *****************
  5089 ;; Defined at:
  5090 ;;		line 72 in file "C:\Program Files (x86)\Microchip\xc8\v2.10\pic\sources\c99\common\doprnt.c"
  5091 ;; Parameters:    Size  Location     Type
  5092 ;;  fp              1    wreg     PTR struct _IO_FILE
  5093 ;;		 -> NULL(0), 
  5094 ;;  buf             1    4[BANK0 ] PTR unsigned char 
  5095 ;;		 -> dbuf(32), 
  5096 ;;  p               2    5[BANK0 ] int 
  5097 ;; Auto vars:     Size  Location     Type
  5098 ;;  fp              1   12[BANK0 ] PTR struct _IO_FILE
  5099 ;;		 -> NULL(0), 
  5100 ;;  w               2   10[BANK0 ] int 
  5101 ;;  i               2    8[BANK0 ] int 
  5102 ;; Return value:  Size  Location     Type
  5103 ;;                  2    4[BANK0 ] int 
  5104 ;; Registers used:
  5105 ;;		wreg, fsr1l, fsr1h, status,2, status,0, pclath, cstack
  5106 ;; Tracked objects:
  5107 ;;		On entry : 0/0
  5108 ;;		On exit  : 0/0
  5109 ;;		Unchanged: 0/0
  5110 ;; Data sizes:     COMMON   BANK0   BANK1   BANK2   BANK3   BANK4   BANK5   BANK6   BANK7   BANK8   BANK9  BANK10  BANK1
      +1  BANK12  BANK13  BANK14  BANK15  BANK16  BANK17  BANK18  BANK19  BANK20  BANK21  BANK22  BANK23  BANK24  BANK25
  5111 ;;      Params:         0       3       0       0       0       0       0       0       0       0       0       0       
      +0       0       0       0       0       0       0       0       0       0       0       0       0       0       0
  5112 ;;      Locals:         0       5       0       0       0       0       0       0       0       0       0       0       
      +0       0       0       0       0       0       0       0       0       0       0       0       0       0       0
  5113 ;;      Temps:          0       1       0       0       0       0       0       0       0       0       0       0       
      +0       0       0       0       0       0       0       0       0       0       0       0       0       0       0
  5114 ;;      Totals:         0       9       0       0       0       0       0       0       0       0       0       0       
      +0       0       0       0       0       0       0       0       0       0       0       0       0       0       0
  5115 ;;Total ram usage:        9 bytes
  5116 ;; Hardware stack levels used:    1
  5117 ;; Hardware stack levels required when called:    7
  5118 ;; This function calls:
  5119 ;;		_fputc
  5120 ;;		_fputs
  5121 ;;		_strlen
  5122 ;; This function is called by:
  5123 ;;		_dtoa
  5124 ;; This function uses a non-reentrant model
  5125 ;;
  5126                           
  5127                           
  5128                           ;psect for function _pad
  5129  04D0                     _pad:	
  5130                           
  5131                           ;incstack = 0
  5132                           ; Regs used in _pad: [wreg+fsr1l+fsr1h+status,2+status,0+pclath+cstack]
  5133                           ;pad@fp stored from wreg
  5134  04D0  0140               	movlb	0	; select bank0
  5135  04D1  00AC               	movwf	pad@fp
  5136  04D2                     l1504:	
  5137                           
  5138                           ;C:\Program Files (x86)\Microchip\xc8\v2.10\pic\sources\c99\common\doprnt.c: 72: static 
      +                          int pad(FILE *fp, char *buf, int p);C:\Program Files (x86)\Microchip\xc8\v2.10\pic\sourc
      +                          es\c99\common\doprnt.c: 73: {;C:\Program Files (x86)\Microchip\xc8\v2.10\pic\sources\c99
      +                          \common\doprnt.c: 74:     int i, w;;C:\Program Files (x86)\Microchip\xc8\v2.10\pic\sourc
      +                          es\c99\common\doprnt.c: 77:     if (flags & (1 << 0)) {
  5139  04D2  1C6E               	btfss	_flags,0
  5140  04D3  2CD5               	goto	u751
  5141  04D4  2CD6               	goto	u750
  5142  04D5                     u751:	
  5143  04D5  2CDE               	goto	l1508
  5144  04D6                     u750:	
  5145  04D6                     l1506:	
  5146                           
  5147                           ;C:\Program Files (x86)\Microchip\xc8\v2.10\pic\sources\c99\common\doprnt.c: 78:        
      +                           fputs((const char *)buf, fp);
  5148  04D6  082C               	movf	pad@fp,w
  5149  04D7  00A7               	movwf	??_pad
  5150  04D8  0827               	movf	??_pad,w
  5151  04D9  00FA               	movwf	fputs@fp
  5152  04DA  0824               	movf	pad@buf,w
  5153  04DB  3185  25F2  3184   	fcall	_fputs
  5154  04DE                     l1508:	
  5155                           
  5156                           ;C:\Program Files (x86)\Microchip\xc8\v2.10\pic\sources\c99\common\doprnt.c: 82:     w =
      +                           (p < 0) ? 0 : p;
  5157  04DE  0140               	movlb	0	; select bank0
  5158  04DF  1BA6               	btfsc	pad@p+1,7
  5159  04E0  2CE2               	goto	u761
  5160  04E1  2CE3               	goto	u760
  5161  04E2                     u761:	
  5162  04E2  2CE8               	goto	l1512
  5163  04E3                     u760:	
  5164  04E3                     l1510:	
  5165  04E3  0826               	movf	pad@p+1,w
  5166  04E4  00AB               	movwf	pad@w+1
  5167  04E5  0825               	movf	pad@p,w
  5168  04E6  00AA               	movwf	pad@w
  5169  04E7  2CEA               	goto	l481
  5170  04E8                     l1512:	
  5171  04E8  01AA               	clrf	pad@w
  5172  04E9  01AB               	clrf	pad@w+1
  5173  04EA                     l481:	
  5174                           
  5175                           ;C:\Program Files (x86)\Microchip\xc8\v2.10\pic\sources\c99\common\doprnt.c: 83:     i =
      +                           0;
  5176  04EA  01A8               	clrf	pad@i
  5177  04EB  01A9               	clrf	pad@i+1
  5178                           
  5179                           ;C:\Program Files (x86)\Microchip\xc8\v2.10\pic\sources\c99\common\doprnt.c: 84:     whi
      +                          le (i < w) {
  5180  04EC  2CFE               	goto	l1518
  5181  04ED                     l1514:	
  5182                           
  5183                           ;C:\Program Files (x86)\Microchip\xc8\v2.10\pic\sources\c99\common\doprnt.c: 85:        
      +                           fputc(' ', fp);
  5184  04ED  3020               	movlw	32
  5185  04EE  00F2               	movwf	fputc@c
  5186  04EF  3000               	movlw	0
  5187  04F0  00F3               	movwf	fputc@c+1
  5188  04F1  0140               	movlb	0	; select bank0
  5189  04F2  082C               	movf	pad@fp,w
  5190  04F3  00A7               	movwf	??_pad
  5191  04F4  0827               	movf	??_pad,w
  5192  04F5  00F4               	movwf	fputc@fp
  5193  04F6  3185  2526  3184   	fcall	_fputc
  5194  04F9                     l1516:	
  5195                           
  5196                           ;C:\Program Files (x86)\Microchip\xc8\v2.10\pic\sources\c99\common\doprnt.c: 86:        
      +                           ++i;
  5197  04F9  3001               	movlw	1
  5198  04FA  0140               	movlb	0	; select bank0
  5199  04FB  07A8               	addwf	pad@i,f
  5200  04FC  3000               	movlw	0
  5201  04FD  3DA9               	addwfc	pad@i+1,f
  5202  04FE                     l1518:	
  5203                           
  5204                           ;C:\Program Files (x86)\Microchip\xc8\v2.10\pic\sources\c99\common\doprnt.c: 84:     whi
      +                          le (i < w) {
  5205  04FE  0829               	movf	pad@i+1,w
  5206  04FF  3A80               	xorlw	128
  5207  0500  00A7               	movwf	??_pad
  5208  0501  082B               	movf	pad@w+1,w
  5209  0502  3A80               	xorlw	128
  5210  0503  0227               	subwf	??_pad,w
  5211  0504  1D03               	skipz
  5212  0505  2D08               	goto	u775
  5213  0506  082A               	movf	pad@w,w
  5214  0507  0228               	subwf	pad@i,w
  5215  0508                     u775:	
  5216  0508  1C03               	skipc
  5217  0509  2D0B               	goto	u771
  5218  050A  2D0C               	goto	u770
  5219  050B                     u771:	
  5220  050B  2CED               	goto	l1514
  5221  050C                     u770:	
  5222  050C                     l484:	
  5223                           
  5224                           ;C:\Program Files (x86)\Microchip\xc8\v2.10\pic\sources\c99\common\doprnt.c: 90:     if 
      +                          (!(flags & (1 << 0))) {
  5225  050C  0140               	movlb	0	; select bank0
  5226  050D  186E               	btfsc	_flags,0
  5227  050E  2D10               	goto	u781
  5228  050F  2D11               	goto	u780
  5229  0510                     u781:	
  5230  0510  2D19               	goto	l485
  5231  0511                     u780:	
  5232  0511                     l1520:	
  5233                           
  5234                           ;C:\Program Files (x86)\Microchip\xc8\v2.10\pic\sources\c99\common\doprnt.c: 91:        
      +                           fputs((const char *)buf, fp);
  5235  0511  082C               	movf	pad@fp,w
  5236  0512  00A7               	movwf	??_pad
  5237  0513  0827               	movf	??_pad,w
  5238  0514  00FA               	movwf	fputs@fp
  5239  0515  0824               	movf	pad@buf,w
  5240  0516  3185  25F2  3184   	fcall	_fputs
  5241  0519                     l485:	
  5242                           ;C:\Program Files (x86)\Microchip\xc8\v2.10\pic\sources\c99\common\doprnt.c: 92:     }
  5243                           
  5244                           
  5245                           ;C:\Program Files (x86)\Microchip\xc8\v2.10\pic\sources\c99\common\doprnt.c: 94:     ret
      +                          urn strlen(buf) + w;
  5246  0519  0140               	movlb	0	; select bank0
  5247  051A  0824               	movf	pad@buf,w
  5248  051B  3186  2656  3184   	fcall	_strlen
  5249  051E  0140               	movlb	0	; select bank0
  5250  051F  082A               	movf	pad@w,w
  5251  0520  0770               	addwf	?_strlen,w
  5252  0521  00A4               	movwf	?_pad
  5253  0522  082B               	movf	pad@w+1,w
  5254  0523  3D71               	addwfc	?_strlen+1,w
  5255  0524  00A5               	movwf	?_pad+1
  5256  0525                     l486:	
  5257  0525  0008               	return
  5258  0526                     __end_of_pad:	
  5259                           
  5260                           	psect	text7
  5261  0656                     __ptext7:	
  5262 ;; *************** function _strlen *****************
  5263 ;; Defined at:
  5264 ;;		line 5 in file "C:\Program Files (x86)\Microchip\xc8\v2.10\pic\sources\c99\common\strlen.c"
  5265 ;; Parameters:    Size  Location     Type
  5266 ;;  s               1    wreg     PTR const unsigned char 
  5267 ;;		 -> dbuf(32), 
  5268 ;; Auto vars:     Size  Location     Type
  5269 ;;  s               1    4[COMMON] PTR const unsigned char 
  5270 ;;		 -> dbuf(32), 
  5271 ;;  a               1    3[COMMON] PTR const unsigned char 
  5272 ;;		 -> dbuf(32), 
  5273 ;; Return value:  Size  Location     Type
  5274 ;;                  2    0[COMMON] unsigned int 
  5275 ;; Registers used:
  5276 ;;		wreg, fsr1l, fsr1h, status,2, status,0
  5277 ;; Tracked objects:
  5278 ;;		On entry : 0/0
  5279 ;;		On exit  : 0/0
  5280 ;;		Unchanged: 0/0
  5281 ;; Data sizes:     COMMON   BANK0   BANK1   BANK2   BANK3   BANK4   BANK5   BANK6   BANK7   BANK8   BANK9  BANK10  BANK1
      +1  BANK12  BANK13  BANK14  BANK15  BANK16  BANK17  BANK18  BANK19  BANK20  BANK21  BANK22  BANK23  BANK24  BANK25
  5282 ;;      Params:         2       0       0       0       0       0       0       0       0       0       0       0       
      +0       0       0       0       0       0       0       0       0       0       0       0       0       0       0
  5283 ;;      Locals:         2       0       0       0       0       0       0       0       0       0       0       0       
      +0       0       0       0       0       0       0       0       0       0       0       0       0       0       0
  5284 ;;      Temps:          1       0       0       0       0       0       0       0       0       0       0       0       
      +0       0       0       0       0       0       0       0       0       0       0       0       0       0       0
  5285 ;;      Totals:         5       0       0       0       0       0       0       0       0       0       0       0       
      +0       0       0       0       0       0       0       0       0       0       0       0       0       0       0
  5286 ;;Total ram usage:        5 bytes
  5287 ;; Hardware stack levels used:    1
  5288 ;; Hardware stack levels required when called:    3
  5289 ;; This function calls:
  5290 ;;		Nothing
  5291 ;; This function is called by:
  5292 ;;		_pad
  5293 ;; This function uses a non-reentrant model
  5294 ;;
  5295                           
  5296                           
  5297                           ;psect for function _strlen
  5298  0656                     _strlen:	
  5299                           
  5300                           ;incstack = 0
  5301                           ; Regs used in _strlen: [wreg+fsr1l+fsr1h+status,2+status,0]
  5302                           ;strlen@s stored from wreg
  5303  0656  00F4               	movwf	strlen@s
  5304  0657                     l1494:	
  5305  0657  0874               	movf	strlen@s,w
  5306  0658  00F2               	movwf	??_strlen
  5307  0659  0872               	movf	??_strlen,w
  5308  065A  00F3               	movwf	strlen@a
  5309  065B  2E60               	goto	l1498
  5310  065C                     l1496:	
  5311  065C  3001               	movlw	1
  5312  065D  00F2               	movwf	??_strlen
  5313  065E  0872               	movf	??_strlen,w
  5314  065F  07F4               	addwf	strlen@s,f
  5315  0660                     l1498:	
  5316  0660  0874               	movf	strlen@s,w
  5317  0661  0086               	movwf	6
  5318  0662  0187               	clrf	7
  5319  0663  0801               	movf	1,w
  5320  0664  1D03               	btfss	3,2
  5321  0665  2E67               	goto	u741
  5322  0666  2E68               	goto	u740
  5323  0667                     u741:	
  5324  0667  2E5C               	goto	l1496
  5325  0668                     u740:	
  5326  0668                     l1500:	
  5327  0668  0873               	movf	strlen@a,w
  5328  0669  0274               	subwf	strlen@s,w
  5329  066A  00F0               	movwf	?_strlen
  5330  066B  01F1               	clrf	?_strlen+1
  5331  066C  1BF0               	btfsc	?_strlen,7
  5332  066D  03F1               	decf	?_strlen+1,f
  5333  066E                     l1020:	
  5334  066E  0008               	return
  5335  066F                     __end_of_strlen:	
  5336                           
  5337                           	psect	text8
  5338  05F2                     __ptext8:	
  5339 ;; *************** function _fputs *****************
  5340 ;; Defined at:
  5341 ;;		line 8 in file "C:\Program Files (x86)\Microchip\xc8\v2.10\pic\sources\c99\common\nf_fputs.c"
  5342 ;; Parameters:    Size  Location     Type
  5343 ;;  s               1    wreg     PTR const unsigned char 
  5344 ;;		 -> dbuf(32), 
  5345 ;;  fp              1   10[COMMON] PTR struct _IO_FILE
  5346 ;;		 -> NULL(0), 
  5347 ;; Auto vars:     Size  Location     Type
  5348 ;;  s               1    3[BANK0 ] PTR const unsigned char 
  5349 ;;		 -> dbuf(32), 
  5350 ;;  i               2    1[BANK0 ] int 
  5351 ;;  c               1    0[BANK0 ] unsigned char 
  5352 ;; Return value:  Size  Location     Type
  5353 ;;                  2   10[COMMON] int 
  5354 ;; Registers used:
  5355 ;;		wreg, fsr1l, fsr1h, status,2, status,0, pclath, cstack
  5356 ;; Tracked objects:
  5357 ;;		On entry : 0/0
  5358 ;;		On exit  : 0/0
  5359 ;;		Unchanged: 0/0
  5360 ;; Data sizes:     COMMON   BANK0   BANK1   BANK2   BANK3   BANK4   BANK5   BANK6   BANK7   BANK8   BANK9  BANK10  BANK1
      +1  BANK12  BANK13  BANK14  BANK15  BANK16  BANK17  BANK18  BANK19  BANK20  BANK21  BANK22  BANK23  BANK24  BANK25
  5361 ;;      Params:         1       0       0       0       0       0       0       0       0       0       0       0       
      +0       0       0       0       0       0       0       0       0       0       0       0       0       0       0
  5362 ;;      Locals:         0       4       0       0       0       0       0       0       0       0       0       0       
      +0       0       0       0       0       0       0       0       0       0       0       0       0       0       0
  5363 ;;      Temps:          3       0       0       0       0       0       0       0       0       0       0       0       
      +0       0       0       0       0       0       0       0       0       0       0       0       0       0       0
  5364 ;;      Totals:         4       4       0       0       0       0       0       0       0       0       0       0       
      +0       0       0       0       0       0       0       0       0       0       0       0       0       0       0
  5365 ;;Total ram usage:        8 bytes
  5366 ;; Hardware stack levels used:    1
  5367 ;; Hardware stack levels required when called:    6
  5368 ;; This function calls:
  5369 ;;		_fputc
  5370 ;; This function is called by:
  5371 ;;		_pad
  5372 ;; This function uses a non-reentrant model
  5373 ;;
  5374                           
  5375                           
  5376                           ;psect for function _fputs
  5377  05F2                     _fputs:	
  5378                           
  5379                           ;incstack = 0
  5380                           ; Regs used in _fputs: [wreg+fsr1l+fsr1h+status,2+status,0+pclath+cstack]
  5381                           ;fputs@s stored from wreg
  5382  05F2  0140               	movlb	0	; select bank0
  5383  05F3  00A3               	movwf	fputs@s
  5384  05F4                     l1486:	
  5385  05F4  01A1               	clrf	fputs@i
  5386  05F5  01A2               	clrf	fputs@i+1
  5387  05F6  2E0A               	goto	l1492
  5388  05F7                     l1488:	
  5389  05F7  0820               	movf	fputs@c,w
  5390  05F8  00FB               	movwf	??_fputs
  5391  05F9  01FC               	clrf	??_fputs+1
  5392  05FA  087B               	movf	??_fputs,w
  5393  05FB  00F2               	movwf	fputc@c
  5394  05FC  087C               	movf	??_fputs+1,w
  5395  05FD  00F3               	movwf	fputc@c+1
  5396  05FE  087A               	movf	fputs@fp,w
  5397  05FF  00FD               	movwf	??_fputs+2
  5398  0600  087D               	movf	??_fputs+2,w
  5399  0601  00F4               	movwf	fputc@fp
  5400  0602  3185  2526  3185   	fcall	_fputc
  5401  0605                     l1490:	
  5402  0605  3001               	movlw	1
  5403  0606  0140               	movlb	0	; select bank0
  5404  0607  07A1               	addwf	fputs@i,f
  5405  0608  3000               	movlw	0
  5406  0609  3DA2               	addwfc	fputs@i+1,f
  5407  060A                     l1492:	
  5408  060A  0821               	movf	fputs@i,w
  5409  060B  0723               	addwf	fputs@s,w
  5410  060C  00FB               	movwf	??_fputs
  5411  060D  087B               	movf	??_fputs,w
  5412  060E  0086               	movwf	6
  5413  060F  0187               	clrf	7
  5414  0610  0801               	movf	1,w
  5415  0611  00FC               	movwf	??_fputs+1
  5416  0612  087C               	movf	??_fputs+1,w
  5417  0613  00A0               	movwf	fputs@c
  5418  0614  0820               	movf	fputs@c,w
  5419  0615  1D03               	btfss	3,2
  5420  0616  2E18               	goto	u731
  5421  0617  2E19               	goto	u730
  5422  0618                     u731:	
  5423  0618  2DF7               	goto	l1488
  5424  0619                     u730:	
  5425  0619                     l1007:	
  5426  0619  0008               	return
  5427  061A                     __end_of_fputs:	
  5428                           
  5429                           	psect	text9
  5430  0526                     __ptext9:	
  5431 ;; *************** function _fputc *****************
  5432 ;; Defined at:
  5433 ;;		line 8 in file "C:\Program Files (x86)\Microchip\xc8\v2.10\pic\sources\c99\common\nf_fputc.c"
  5434 ;; Parameters:    Size  Location     Type
  5435 ;;  c               2    2[COMMON] int 
  5436 ;;  fp              1    4[COMMON] PTR struct _IO_FILE
  5437 ;;		 -> NULL(0), 
  5438 ;; Auto vars:     Size  Location     Type
  5439 ;;		None
  5440 ;; Return value:  Size  Location     Type
  5441 ;;                  2    2[COMMON] int 
  5442 ;; Registers used:
  5443 ;;		wreg, fsr1l, fsr1h, status,2, status,0, pclath, cstack
  5444 ;; Tracked objects:
  5445 ;;		On entry : 0/0
  5446 ;;		On exit  : 0/0
  5447 ;;		Unchanged: 0/0
  5448 ;; Data sizes:     COMMON   BANK0   BANK1   BANK2   BANK3   BANK4   BANK5   BANK6   BANK7   BANK8   BANK9  BANK10  BANK1
      +1  BANK12  BANK13  BANK14  BANK15  BANK16  BANK17  BANK18  BANK19  BANK20  BANK21  BANK22  BANK23  BANK24  BANK25
  5449 ;;      Params:         3       0       0       0       0       0       0       0       0       0       0       0       
      +0       0       0       0       0       0       0       0       0       0       0       0       0       0       0
  5450 ;;      Locals:         0       0       0       0       0       0       0       0       0       0       0       0       
      +0       0       0       0       0       0       0       0       0       0       0       0       0       0       0
  5451 ;;      Temps:          5       0       0       0       0       0       0       0       0       0       0       0       
      +0       0       0       0       0       0       0       0       0       0       0       0       0       0       0
  5452 ;;      Totals:         8       0       0       0       0       0       0       0       0       0       0       0       
      +0       0       0       0       0       0       0       0       0       0       0       0       0       0       0
  5453 ;;Total ram usage:        8 bytes
  5454 ;; Hardware stack levels used:    1
  5455 ;; Hardware stack levels required when called:    5
  5456 ;; This function calls:
  5457 ;;		_putch
  5458 ;; This function is called by:
  5459 ;;		_pad
  5460 ;;		_vfpfcnvrt
  5461 ;;		_fputs
  5462 ;; This function uses a non-reentrant model
  5463 ;;
  5464                           
  5465                           
  5466                           ;psect for function _fputc
  5467  0526                     _fputc:	
  5468  0526                     l1472:	
  5469                           ;incstack = 0
  5470                           ; Regs used in _fputc: [wreg+fsr1l+fsr1h+status,2+status,0+pclath+cstack]
  5471                           
  5472  0526  0874               	movf	fputc@fp,w
  5473  0527  1903               	btfsc	3,2
  5474  0528  2D2A               	goto	u691
  5475  0529  2D2B               	goto	u690
  5476  052A                     u691:	
  5477  052A  2D30               	goto	l1476
  5478  052B                     u690:	
  5479  052B                     l1474:	
  5480  052B  0874               	movf	fputc@fp,w
  5481  052C  1D03               	btfss	3,2
  5482  052D  2D2F               	goto	u701
  5483  052E  2D30               	goto	u700
  5484  052F                     u701:	
  5485  052F  2D35               	goto	l1478
  5486  0530                     u700:	
  5487  0530                     l1476:	
  5488  0530  0872               	movf	fputc@c,w
  5489  0531  3186  26FC  3185   	fcall	_putch
  5490  0534  2D64               	goto	l999
  5491  0535                     l1478:	
  5492  0535  0874               	movf	fputc@fp,w
  5493  0536  3E03               	addlw	3
  5494  0537  0086               	movwf	6
  5495  0538  0187               	clrf	7
  5496  0539  0016               	moviw fsr1++
  5497  053A  0401               	iorwf	1,w
  5498  053B  1903               	btfsc	3,2
  5499  053C  2D3E               	goto	u711
  5500  053D  2D3F               	goto	u710
  5501  053E                     u711:	
  5502  053E  2D5C               	goto	l1482
  5503  053F                     u710:	
  5504  053F                     l1480:	
  5505  053F  0874               	movf	fputc@fp,w
  5506  0540  3E03               	addlw	3
  5507  0541  0086               	movwf	6
  5508  0542  0187               	clrf	7
  5509  0543  3F40               	moviw [0]fsr1
  5510  0544  00F5               	movwf	??_fputc
  5511  0545  3F41               	moviw [1]fsr1
  5512  0546  00F6               	movwf	??_fputc+1
  5513  0547  0A74               	incf	fputc@fp,w
  5514  0548  0086               	movwf	6
  5515  0549  0187               	clrf	7
  5516  054A  3F40               	moviw [0]fsr1
  5517  054B  00F7               	movwf	??_fputc+2
  5518  054C  3F41               	moviw [1]fsr1
  5519  054D  00F8               	movwf	??_fputc+3
  5520  054E  0878               	movf	??_fputc+3,w
  5521  054F  3A80               	xorlw	128
  5522  0550  00F9               	movwf	??_fputc+4
  5523  0551  0876               	movf	??_fputc+1,w
  5524  0552  3A80               	xorlw	128
  5525  0553  0279               	subwf	??_fputc+4,w
  5526  0554  1D03               	skipz
  5527  0555  2D58               	goto	u725
  5528  0556  0875               	movf	??_fputc,w
  5529  0557  0277               	subwf	??_fputc+2,w
  5530  0558                     u725:	
  5531  0558  1803               	skipnc
  5532  0559  2D5B               	goto	u721
  5533  055A  2D5C               	goto	u720
  5534  055B                     u721:	
  5535  055B  2D64               	goto	l999
  5536  055C                     u720:	
  5537  055C                     l1482:	
  5538  055C  0A74               	incf	fputc@fp,w
  5539  055D  0086               	movwf	6
  5540  055E  0187               	clrf	7
  5541  055F  3001               	movlw	1
  5542  0560  0781               	addwf	1,f
  5543  0561  3141               	addfsr 1,1
  5544  0562  1803               	skipnc
  5545  0563  0A81               	incf	1,f
  5546  0564                     l999:	
  5547  0564  0008               	return
  5548  0565                     __end_of_fputc:	
  5549                           
  5550                           	psect	text10
  5551  06FC                     __ptext10:	
  5552 ;; *************** function _putch *****************
  5553 ;; Defined at:
  5554 ;;		line 146 in file "mcc_generated_files/eusart1.c"
  5555 ;; Parameters:    Size  Location     Type
  5556 ;;  txData          1    wreg     unsigned char 
  5557 ;; Auto vars:     Size  Location     Type
  5558 ;;  txData          1    1[COMMON] unsigned char 
  5559 ;; Return value:  Size  Location     Type
  5560 ;;                  1    wreg      void 
  5561 ;; Registers used:
  5562 ;;		wreg, status,2, status,0, pclath, cstack
  5563 ;; Tracked objects:
  5564 ;;		On entry : 0/0
  5565 ;;		On exit  : 0/0
  5566 ;;		Unchanged: 0/0
  5567 ;; Data sizes:     COMMON   BANK0   BANK1   BANK2   BANK3   BANK4   BANK5   BANK6   BANK7   BANK8   BANK9  BANK10  BANK1
      +1  BANK12  BANK13  BANK14  BANK15  BANK16  BANK17  BANK18  BANK19  BANK20  BANK21  BANK22  BANK23  BANK24  BANK25
  5568 ;;      Params:         0       0       0       0       0       0       0       0       0       0       0       0       
      +0       0       0       0       0       0       0       0       0       0       0       0       0       0       0
  5569 ;;      Locals:         1       0       0       0       0       0       0       0       0       0       0       0       
      +0       0       0       0       0       0       0       0       0       0       0       0       0       0       0
  5570 ;;      Temps:          0       0       0       0       0       0       0       0       0       0       0       0       
      +0       0       0       0       0       0       0       0       0       0       0       0       0       0       0
  5571 ;;      Totals:         1       0       0       0       0       0       0       0       0       0       0       0       
      +0       0       0       0       0       0       0       0       0       0       0       0       0       0       0
  5572 ;;Total ram usage:        1 bytes
  5573 ;; Hardware stack levels used:    1
  5574 ;; Hardware stack levels required when called:    4
  5575 ;; This function calls:
  5576 ;;		_EUSART1_Write
  5577 ;; This function is called by:
  5578 ;;		_fputc
  5579 ;; This function uses a non-reentrant model
  5580 ;;
  5581                           
  5582                           
  5583                           ;psect for function _putch
  5584  06FC                     _putch:	
  5585                           
  5586                           ;incstack = 0
  5587                           ; Regs used in _putch: [wreg+status,2+status,0+pclath+cstack]
  5588                           ;putch@txData stored from wreg
  5589  06FC  00F1               	movwf	putch@txData
  5590  06FD                     l1470:	
  5591                           
  5592                           ;mcc_generated_files/eusart1.c: 146: void putch(char txData);mcc_generated_files/eusart1
      +                          .c: 147: {;mcc_generated_files/eusart1.c: 148:     EUSART1_Write(txData);
  5593  06FD  0871               	movf	putch@txData,w
  5594  06FE  3186  26D0  3186   	fcall	_EUSART1_Write
  5595  0701                     l238:	
  5596  0701  0008               	return
  5597  0702                     __end_of_putch:	
  5598                           
  5599                           	psect	text11
  5600  06D0                     __ptext11:	
  5601 ;; *************** function _EUSART1_Write *****************
  5602 ;; Defined at:
  5603 ;;		line 132 in file "mcc_generated_files/eusart1.c"
  5604 ;; Parameters:    Size  Location     Type
  5605 ;;  txData          1    wreg     unsigned char 
  5606 ;; Auto vars:     Size  Location     Type
  5607 ;;  txData          1    0[COMMON] unsigned char 
  5608 ;; Return value:  Size  Location     Type
  5609 ;;                  1    wreg      void 
  5610 ;; Registers used:
  5611 ;;		wreg
  5612 ;; Tracked objects:
  5613 ;;		On entry : 0/0
  5614 ;;		On exit  : 0/0
  5615 ;;		Unchanged: 0/0
  5616 ;; Data sizes:     COMMON   BANK0   BANK1   BANK2   BANK3   BANK4   BANK5   BANK6   BANK7   BANK8   BANK9  BANK10  BANK1
      +1  BANK12  BANK13  BANK14  BANK15  BANK16  BANK17  BANK18  BANK19  BANK20  BANK21  BANK22  BANK23  BANK24  BANK25
  5617 ;;      Params:         0       0       0       0       0       0       0       0       0       0       0       0       
      +0       0       0       0       0       0       0       0       0       0       0       0       0       0       0
  5618 ;;      Locals:         1       0       0       0       0       0       0       0       0       0       0       0       
      +0       0       0       0       0       0       0       0       0       0       0       0       0       0       0
  5619 ;;      Temps:          0       0       0       0       0       0       0       0       0       0       0       0       
      +0       0       0       0       0       0       0       0       0       0       0       0       0       0       0
  5620 ;;      Totals:         1       0       0       0       0       0       0       0       0       0       0       0       
      +0       0       0       0       0       0       0       0       0       0       0       0       0       0       0
  5621 ;;Total ram usage:        1 bytes
  5622 ;; Hardware stack levels used:    1
  5623 ;; Hardware stack levels required when called:    3
  5624 ;; This function calls:
  5625 ;;		Nothing
  5626 ;; This function is called by:
  5627 ;;		_putch
  5628 ;; This function uses a non-reentrant model
  5629 ;;
  5630                           
  5631                           
  5632                           ;psect for function _EUSART1_Write
  5633  06D0                     _EUSART1_Write:	
  5634                           
  5635                           ;incstack = 0
  5636                           ; Regs used in _EUSART1_Write: [wreg]
  5637                           ;EUSART1_Write@txData stored from wreg
  5638  06D0  00F0               	movwf	EUSART1_Write@txData
  5639  06D1                     l1466:	
  5640  06D1                     l229:	
  5641                           ;mcc_generated_files/eusart1.c: 135:     {;mcc_generated_files/eusart1.c: 136:     }
  5642                           
  5643                           
  5644                           ;mcc_generated_files/eusart1.c: 134:     while(0 == PIR3bits.TX1IF)
  5645  06D1  014E               	movlb	14	; select bank14
  5646  06D2  1E0F               	btfss	15,4	;volatile
  5647  06D3  2ED5               	goto	u681
  5648  06D4  2ED6               	goto	u680
  5649  06D5                     u681:	
  5650  06D5  2ED1               	goto	l229
  5651  06D6                     u680:	
  5652  06D6                     l1468:	
  5653                           
  5654                           ;mcc_generated_files/eusart1.c: 138:     TX1REG = txData;
  5655  06D6  0870               	movf	EUSART1_Write@txData,w
  5656  06D7  0142               	movlb	2	; select bank2
  5657  06D8  009A               	movwf	26	;volatile
  5658  06D9                     l232:	
  5659  06D9  0008               	return
  5660  06DA                     __end_of_EUSART1_Write:	
  5661                           
  5662                           	psect	text12
  5663  063C                     __ptext12:	
  5664 ;; *************** function _abs *****************
  5665 ;; Defined at:
  5666 ;;		line 1 in file "C:\Program Files (x86)\Microchip\xc8\v2.10\pic\sources\c99\common\abs.c"
  5667 ;; Parameters:    Size  Location     Type
  5668 ;;  a               2    3[COMMON] int 
  5669 ;; Auto vars:     Size  Location     Type
  5670 ;;		None
  5671 ;; Return value:  Size  Location     Type
  5672 ;;                  2    3[COMMON] int 
  5673 ;; Registers used:
  5674 ;;		wreg, status,2, status,0
  5675 ;; Tracked objects:
  5676 ;;		On entry : 0/0
  5677 ;;		On exit  : 0/0
  5678 ;;		Unchanged: 0/0
  5679 ;; Data sizes:     COMMON   BANK0   BANK1   BANK2   BANK3   BANK4   BANK5   BANK6   BANK7   BANK8   BANK9  BANK10  BANK1
      +1  BANK12  BANK13  BANK14  BANK15  BANK16  BANK17  BANK18  BANK19  BANK20  BANK21  BANK22  BANK23  BANK24  BANK25
  5680 ;;      Params:         2       0       0       0       0       0       0       0       0       0       0       0       
      +0       0       0       0       0       0       0       0       0       0       0       0       0       0       0
  5681 ;;      Locals:         0       0       0       0       0       0       0       0       0       0       0       0       
      +0       0       0       0       0       0       0       0       0       0       0       0       0       0       0
  5682 ;;      Temps:          2       0       0       0       0       0       0       0       0       0       0       0       
      +0       0       0       0       0       0       0       0       0       0       0       0       0       0       0
  5683 ;;      Totals:         4       0       0       0       0       0       0       0       0       0       0       0       
      +0       0       0       0       0       0       0       0       0       0       0       0       0       0       0
  5684 ;;Total ram usage:        4 bytes
  5685 ;; Hardware stack levels used:    1
  5686 ;; Hardware stack levels required when called:    3
  5687 ;; This function calls:
  5688 ;;		Nothing
  5689 ;; This function is called by:
  5690 ;;		_dtoa
  5691 ;; This function uses a non-reentrant model
  5692 ;;
  5693                           
  5694                           
  5695                           ;psect for function _abs
  5696  063C                     _abs:	
  5697  063C                     l1524:	
  5698                           ;incstack = 0
  5699                           ; Regs used in _abs: [wreg+status,2+status,0]
  5700                           
  5701  063C  0874               	movf	abs@a+1,w
  5702  063D  3A80               	xorlw	128
  5703  063E  00F5               	movwf	??_abs
  5704  063F  3080               	movlw	128
  5705  0640  0275               	subwf	??_abs,w
  5706  0641  1D03               	skipz
  5707  0642  2E45               	goto	u795
  5708  0643  3001               	movlw	1
  5709  0644  0273               	subwf	abs@a,w
  5710  0645                     u795:	
  5711  0645  1803               	skipnc
  5712  0646  2E48               	goto	u791
  5713  0647  2E49               	goto	u790
  5714  0648                     u791:	
  5715  0648  2E55               	goto	l984
  5716  0649                     u790:	
  5717  0649                     l1526:	
  5718  0649  0973               	comf	abs@a,w
  5719  064A  00F5               	movwf	??_abs
  5720  064B  0974               	comf	abs@a+1,w
  5721  064C  00F6               	movwf	??_abs+1
  5722  064D  0AF5               	incf	??_abs,f
  5723  064E  1903               	skipnz
  5724  064F  0AF6               	incf	??_abs+1,f
  5725  0650  0875               	movf	??_abs,w
  5726  0651  00F3               	movwf	?_abs
  5727  0652  0876               	movf	??_abs+1,w
  5728  0653  00F4               	movwf	?_abs+1
  5729  0654  2E55               	goto	l987
  5730  0655                     l984:	
  5731  0655                     l987:	
  5732  0655  0008               	return
  5733  0656                     __end_of_abs:	
  5734                           
  5735                           	psect	text13
  5736  0290                     __ptext13:	
  5737 ;; *************** function ___aomod *****************
  5738 ;; Defined at:
  5739 ;;		line 7 in file "C:\Program Files (x86)\Microchip\xc8\v2.10\pic\sources\c99\common\aomod.c"
  5740 ;; Parameters:    Size  Location     Type
  5741 ;;  divisor         8    0[BANK0 ] long long 
  5742 ;;  dividend        8    8[BANK0 ] long long 
  5743 ;; Auto vars:     Size  Location     Type
  5744 ;;  sign            1    2[COMMON] unsigned char 
  5745 ;;  counter         1    1[COMMON] unsigned char 
  5746 ;; Return value:  Size  Location     Type
  5747 ;;                  8    0[BANK0 ] long long 
  5748 ;; Registers used:
  5749 ;;		wreg, fsr1l, fsr1h, status,2, status,0
  5750 ;; Tracked objects:
  5751 ;;		On entry : 0/0
  5752 ;;		On exit  : 0/0
  5753 ;;		Unchanged: 0/0
  5754 ;; Data sizes:     COMMON   BANK0   BANK1   BANK2   BANK3   BANK4   BANK5   BANK6   BANK7   BANK8   BANK9  BANK10  BANK1
      +1  BANK12  BANK13  BANK14  BANK15  BANK16  BANK17  BANK18  BANK19  BANK20  BANK21  BANK22  BANK23  BANK24  BANK25
  5755 ;;      Params:         0      16       0       0       0       0       0       0       0       0       0       0       
      +0       0       0       0       0       0       0       0       0       0       0       0       0       0       0
  5756 ;;      Locals:         2       0       0       0       0       0       0       0       0       0       0       0       
      +0       0       0       0       0       0       0       0       0       0       0       0       0       0       0
  5757 ;;      Temps:          1       0       0       0       0       0       0       0       0       0       0       0       
      +0       0       0       0       0       0       0       0       0       0       0       0       0       0       0
  5758 ;;      Totals:         3      16       0       0       0       0       0       0       0       0       0       0       
      +0       0       0       0       0       0       0       0       0       0       0       0       0       0       0
  5759 ;;Total ram usage:       19 bytes
  5760 ;; Hardware stack levels used:    1
  5761 ;; Hardware stack levels required when called:    3
  5762 ;; This function calls:
  5763 ;;		Nothing
  5764 ;; This function is called by:
  5765 ;;		_dtoa
  5766 ;; This function uses a non-reentrant model
  5767 ;;
  5768                           
  5769                           
  5770                           ;psect for function ___aomod
  5771  0290                     ___aomod:	
  5772  0290                     l1566:	
  5773                           ;incstack = 0
  5774                           ; Regs used in ___aomod: [wreg+fsr1l+fsr1h+status,2+status,0]
  5775                           
  5776  0290  01F2               	clrf	___aomod@sign
  5777  0291                     l1568:	
  5778  0291  3028               	movlw	low ___aomod@dividend
  5779  0292  0086               	movwf	6
  5780  0293  3000               	movlw	high ___aomod@dividend
  5781  0294  0087               	movwf	7
  5782  0295  3F47               	moviw [7]fsr1
  5783  0296  00F0               	movwf	??___aomod
  5784  0297  1FF0               	btfss	??___aomod,7
  5785  0298  2A9A               	goto	u911
  5786  0299  2A9B               	goto	u910
  5787  029A                     u911:	
  5788  029A  2ABC               	goto	l1572
  5789  029B                     u910:	
  5790  029B                     l1570:	
  5791  029B  0140               	movlb	0	; select bank0
  5792  029C  09A8               	comf	___aomod@dividend,f
  5793  029D  09A9               	comf	___aomod@dividend+1,f
  5794  029E  09AA               	comf	___aomod@dividend+2,f
  5795  029F  09AB               	comf	___aomod@dividend+3,f
  5796  02A0  09AC               	comf	___aomod@dividend+4,f
  5797  02A1  09AD               	comf	___aomod@dividend+5,f
  5798  02A2  09AE               	comf	___aomod@dividend+6,f
  5799  02A3  09AF               	comf	___aomod@dividend+7,f
  5800  02A4  0AA8               	incf	___aomod@dividend,f
  5801  02A5  1D03               	skipz
  5802  02A6  2ABA               	goto	u92lld
  5803  02A7  0AA9               	incf	___aomod@dividend+1,f
  5804  02A8  1D03               	skipz
  5805  02A9  2ABA               	goto	u92lld
  5806  02AA  0AAA               	incf	___aomod@dividend+2,f
  5807  02AB  1D03               	skipz
  5808  02AC  2ABA               	goto	u92lld
  5809  02AD  0AAB               	incf	___aomod@dividend+3,f
  5810  02AE  1D03               	skipz
  5811  02AF  2ABA               	goto	u92lld
  5812  02B0  0AAC               	incf	___aomod@dividend+4,f
  5813  02B1  1D03               	skipz
  5814  02B2  2ABA               	goto	u92lld
  5815  02B3  0AAD               	incf	___aomod@dividend+5,f
  5816  02B4  1D03               	skipz
  5817  02B5  2ABA               	goto	u92lld
  5818  02B6  0AAE               	incf	___aomod@dividend+6,f
  5819  02B7  1D03               	skipz
  5820  02B8  2ABA               	goto	u92lld
  5821  02B9  0AAF               	incf	___aomod@dividend+7,f
  5822  02BA                     u92lld:	
  5823  02BA  01F2               	clrf	___aomod@sign
  5824  02BB  0AF2               	incf	___aomod@sign,f
  5825  02BC                     l1572:	
  5826  02BC  3020               	movlw	low ___aomod@divisor
  5827  02BD  0086               	movwf	6
  5828  02BE  3000               	movlw	high ___aomod@divisor
  5829  02BF  0087               	movwf	7
  5830  02C0  3F47               	moviw [7]fsr1
  5831  02C1  00F0               	movwf	??___aomod
  5832  02C2  1FF0               	btfss	??___aomod,7
  5833  02C3  2AC5               	goto	u931
  5834  02C4  2AC6               	goto	u930
  5835  02C5                     u931:	
  5836  02C5  2AE5               	goto	l1576
  5837  02C6                     u930:	
  5838  02C6                     l1574:	
  5839  02C6  0140               	movlb	0	; select bank0
  5840  02C7  09A0               	comf	___aomod@divisor,f
  5841  02C8  09A1               	comf	___aomod@divisor+1,f
  5842  02C9  09A2               	comf	___aomod@divisor+2,f
  5843  02CA  09A3               	comf	___aomod@divisor+3,f
  5844  02CB  09A4               	comf	___aomod@divisor+4,f
  5845  02CC  09A5               	comf	___aomod@divisor+5,f
  5846  02CD  09A6               	comf	___aomod@divisor+6,f
  5847  02CE  09A7               	comf	___aomod@divisor+7,f
  5848  02CF  0AA0               	incf	___aomod@divisor,f
  5849  02D0  1D03               	skipz
  5850  02D1  2AE5               	goto	u94lld
  5851  02D2  0AA1               	incf	___aomod@divisor+1,f
  5852  02D3  1D03               	skipz
  5853  02D4  2AE5               	goto	u94lld
  5854  02D5  0AA2               	incf	___aomod@divisor+2,f
  5855  02D6  1D03               	skipz
  5856  02D7  2AE5               	goto	u94lld
  5857  02D8  0AA3               	incf	___aomod@divisor+3,f
  5858  02D9  1D03               	skipz
  5859  02DA  2AE5               	goto	u94lld
  5860  02DB  0AA4               	incf	___aomod@divisor+4,f
  5861  02DC  1D03               	skipz
  5862  02DD  2AE5               	goto	u94lld
  5863  02DE  0AA5               	incf	___aomod@divisor+5,f
  5864  02DF  1D03               	skipz
  5865  02E0  2AE5               	goto	u94lld
  5866  02E1  0AA6               	incf	___aomod@divisor+6,f
  5867  02E2  1D03               	skipz
  5868  02E3  2AE5               	goto	u94lld
  5869  02E4  0AA7               	incf	___aomod@divisor+7,f
  5870  02E5                     u94lld:	
  5871  02E5                     l1576:	
  5872  02E5  0140               	movlb	0	; select bank0
  5873  02E6  0820               	movf	___aomod@divisor,w
  5874  02E7  0421               	iorwf	___aomod@divisor+1,w
  5875  02E8  0422               	iorwf	___aomod@divisor+2,w
  5876  02E9  0423               	iorwf	___aomod@divisor+3,w
  5877  02EA  0424               	iorwf	___aomod@divisor+4,w
  5878  02EB  0425               	iorwf	___aomod@divisor+5,w
  5879  02EC  0426               	iorwf	___aomod@divisor+6,w
  5880  02ED  0427               	iorwf	___aomod@divisor+7,w
  5881  02EE  1903               	skipnz
  5882  02EF  2AF1               	goto	u951
  5883  02F0  2AF2               	goto	u950
  5884  02F1                     u951:	
  5885  02F1  2B45               	goto	l1592
  5886  02F2                     u950:	
  5887  02F2                     l1578:	
  5888  02F2  01F1               	clrf	___aomod@counter
  5889  02F3  0AF1               	incf	___aomod@counter,f
  5890  02F4  2B01               	goto	l1584
  5891  02F5                     l1580:	
  5892  02F5  35A0               	lslf	___aomod@divisor,f
  5893  02F6  0DA1               	rlf	___aomod@divisor+1,f
  5894  02F7  0DA2               	rlf	___aomod@divisor+2,f
  5895  02F8  0DA3               	rlf	___aomod@divisor+3,f
  5896  02F9  0DA4               	rlf	___aomod@divisor+4,f
  5897  02FA  0DA5               	rlf	___aomod@divisor+5,f
  5898  02FB  0DA6               	rlf	___aomod@divisor+6,f
  5899  02FC  0DA7               	rlf	___aomod@divisor+7,f
  5900  02FD                     l1582:	
  5901  02FD  3001               	movlw	1
  5902  02FE  00F0               	movwf	??___aomod
  5903  02FF  0870               	movf	??___aomod,w
  5904  0300  07F1               	addwf	___aomod@counter,f
  5905  0301                     l1584:	
  5906  0301  1FA7               	btfss	___aomod@divisor+7,7
  5907  0302  2B04               	goto	u961
  5908  0303  2B05               	goto	u960
  5909  0304                     u961:	
  5910  0304  2AF5               	goto	l1580
  5911  0305                     u960:	
  5912  0305                     l1586:	
  5913  0305  0827               	movf	___aomod@divisor+7,w
  5914  0306  022F               	subwf	___aomod@dividend+7,w
  5915  0307  1D03               	skipz
  5916  0308  2B23               	goto	u975
  5917  0309  0826               	movf	___aomod@divisor+6,w
  5918  030A  022E               	subwf	___aomod@dividend+6,w
  5919  030B  1D03               	skipz
  5920  030C  2B23               	goto	u975
  5921  030D  0825               	movf	___aomod@divisor+5,w
  5922  030E  022D               	subwf	___aomod@dividend+5,w
  5923  030F  1D03               	skipz
  5924  0310  2B23               	goto	u975
  5925  0311  0824               	movf	___aomod@divisor+4,w
  5926  0312  022C               	subwf	___aomod@dividend+4,w
  5927  0313  1D03               	skipz
  5928  0314  2B23               	goto	u975
  5929  0315  0823               	movf	___aomod@divisor+3,w
  5930  0316  022B               	subwf	___aomod@dividend+3,w
  5931  0317  1D03               	skipz
  5932  0318  2B23               	goto	u975
  5933  0319  0822               	movf	___aomod@divisor+2,w
  5934  031A  022A               	subwf	___aomod@dividend+2,w
  5935  031B  1D03               	skipz
  5936  031C  2B23               	goto	u975
  5937  031D  0821               	movf	___aomod@divisor+1,w
  5938  031E  0229               	subwf	___aomod@dividend+1,w
  5939  031F  1D03               	skipz
  5940  0320  2B23               	goto	u975
  5941  0321  0820               	movf	___aomod@divisor,w
  5942  0322  0228               	subwf	___aomod@dividend,w
  5943  0323                     u975:	
  5944  0323  1C03               	skipc
  5945  0324  2B26               	goto	u971
  5946  0325  2B27               	goto	u970
  5947  0326                     u971:	
  5948  0326  2B37               	goto	l1590
  5949  0327                     u970:	
  5950  0327                     l1588:	
  5951  0327  0820               	movf	___aomod@divisor,w
  5952  0328  02A8               	subwf	___aomod@dividend,f
  5953  0329  0821               	movf	___aomod@divisor+1,w
  5954  032A  3BA9               	subwfb	___aomod@dividend+1,f
  5955  032B  0822               	movf	___aomod@divisor+2,w
  5956  032C  3BAA               	subwfb	___aomod@dividend+2,f
  5957  032D  0823               	movf	___aomod@divisor+3,w
  5958  032E  3BAB               	subwfb	___aomod@dividend+3,f
  5959  032F  0824               	movf	___aomod@divisor+4,w
  5960  0330  3BAC               	subwfb	___aomod@dividend+4,f
  5961  0331  0825               	movf	___aomod@divisor+5,w
  5962  0332  3BAD               	subwfb	___aomod@dividend+5,f
  5963  0333  0826               	movf	___aomod@divisor+6,w
  5964  0334  3BAE               	subwfb	___aomod@dividend+6,f
  5965  0335  0827               	movf	___aomod@divisor+7,w
  5966  0336  3BAF               	subwfb	___aomod@dividend+7,f
  5967  0337                     l1590:	
  5968  0337  36A7               	lsrf	___aomod@divisor+7,f
  5969  0338  0CA6               	rrf	___aomod@divisor+6,f
  5970  0339  0CA5               	rrf	___aomod@divisor+5,f
  5971  033A  0CA4               	rrf	___aomod@divisor+4,f
  5972  033B  0CA3               	rrf	___aomod@divisor+3,f
  5973  033C  0CA2               	rrf	___aomod@divisor+2,f
  5974  033D  0CA1               	rrf	___aomod@divisor+1,f
  5975  033E  0CA0               	rrf	___aomod@divisor,f
  5976  033F  3001               	movlw	1
  5977  0340  02F1               	subwf	___aomod@counter,f
  5978  0341  1D03               	btfss	3,2
  5979  0342  2B44               	goto	u981
  5980  0343  2B45               	goto	u980
  5981  0344                     u981:	
  5982  0344  2B05               	goto	l1586
  5983  0345                     u980:	
  5984  0345                     l1592:	
  5985  0345  0872               	movf	___aomod@sign,w
  5986  0346  1903               	btfsc	3,2
  5987  0347  2B49               	goto	u991
  5988  0348  2B4A               	goto	u990
  5989  0349                     u991:	
  5990  0349  2B68               	goto	l643
  5991  034A                     u990:	
  5992  034A                     l1594:	
  5993  034A  09A8               	comf	___aomod@dividend,f
  5994  034B  09A9               	comf	___aomod@dividend+1,f
  5995  034C  09AA               	comf	___aomod@dividend+2,f
  5996  034D  09AB               	comf	___aomod@dividend+3,f
  5997  034E  09AC               	comf	___aomod@dividend+4,f
  5998  034F  09AD               	comf	___aomod@dividend+5,f
  5999  0350  09AE               	comf	___aomod@dividend+6,f
  6000  0351  09AF               	comf	___aomod@dividend+7,f
  6001  0352  0AA8               	incf	___aomod@dividend,f
  6002  0353  1D03               	skipz
  6003  0354  2B68               	goto	u100lld
  6004  0355  0AA9               	incf	___aomod@dividend+1,f
  6005  0356  1D03               	skipz
  6006  0357  2B68               	goto	u100lld
  6007  0358  0AAA               	incf	___aomod@dividend+2,f
  6008  0359  1D03               	skipz
  6009  035A  2B68               	goto	u100lld
  6010  035B  0AAB               	incf	___aomod@dividend+3,f
  6011  035C  1D03               	skipz
  6012  035D  2B68               	goto	u100lld
  6013  035E  0AAC               	incf	___aomod@dividend+4,f
  6014  035F  1D03               	skipz
  6015  0360  2B68               	goto	u100lld
  6016  0361  0AAD               	incf	___aomod@dividend+5,f
  6017  0362  1D03               	skipz
  6018  0363  2B68               	goto	u100lld
  6019  0364  0AAE               	incf	___aomod@dividend+6,f
  6020  0365  1D03               	skipz
  6021  0366  2B68               	goto	u100lld
  6022  0367  0AAF               	incf	___aomod@dividend+7,f
  6023  0368                     u100lld:	
  6024  0368                     l643:	
  6025  0368  0140               	movlb	0	; select bank0
  6026  0369  0828               	movf	___aomod@dividend,w
  6027  036A  00A0               	movwf	?___aomod
  6028  036B  0829               	movf	___aomod@dividend+1,w
  6029  036C  00A1               	movwf	?___aomod+1
  6030  036D  082A               	movf	___aomod@dividend+2,w
  6031  036E  00A2               	movwf	?___aomod+2
  6032  036F  082B               	movf	___aomod@dividend+3,w
  6033  0370  00A3               	movwf	?___aomod+3
  6034  0371  082C               	movf	___aomod@dividend+4,w
  6035  0372  00A4               	movwf	?___aomod+4
  6036  0373  082D               	movf	___aomod@dividend+5,w
  6037  0374  00A5               	movwf	?___aomod+5
  6038  0375  082E               	movf	___aomod@dividend+6,w
  6039  0376  00A6               	movwf	?___aomod+6
  6040  0377  082F               	movf	___aomod@dividend+7,w
  6041  0378  00A7               	movwf	?___aomod+7
  6042  0379                     l644:	
  6043  0379  0008               	return
  6044  037A                     __end_of___aomod:	
  6045                           
  6046                           	psect	text14
  6047  018F                     __ptext14:	
  6048 ;; *************** function ___aodiv *****************
  6049 ;; Defined at:
  6050 ;;		line 7 in file "C:\Program Files (x86)\Microchip\xc8\v2.10\pic\sources\c99\common\aodiv.c"
  6051 ;; Parameters:    Size  Location     Type
  6052 ;;  divisor         8    0[BANK0 ] long long 
  6053 ;;  dividend        8    8[BANK0 ] long long 
  6054 ;; Auto vars:     Size  Location     Type
  6055 ;;  quotient        8    3[COMMON] long long 
  6056 ;;  sign            1    2[COMMON] unsigned char 
  6057 ;;  counter         1    1[COMMON] unsigned char 
  6058 ;; Return value:  Size  Location     Type
  6059 ;;                  8    0[BANK0 ] long long 
  6060 ;; Registers used:
  6061 ;;		wreg, fsr1l, fsr1h, status,2, status,0
  6062 ;; Tracked objects:
  6063 ;;		On entry : 0/0
  6064 ;;		On exit  : 0/0
  6065 ;;		Unchanged: 0/0
  6066 ;; Data sizes:     COMMON   BANK0   BANK1   BANK2   BANK3   BANK4   BANK5   BANK6   BANK7   BANK8   BANK9  BANK10  BANK1
      +1  BANK12  BANK13  BANK14  BANK15  BANK16  BANK17  BANK18  BANK19  BANK20  BANK21  BANK22  BANK23  BANK24  BANK25
  6067 ;;      Params:         0      16       0       0       0       0       0       0       0       0       0       0       
      +0       0       0       0       0       0       0       0       0       0       0       0       0       0       0
  6068 ;;      Locals:        10       0       0       0       0       0       0       0       0       0       0       0       
      +0       0       0       0       0       0       0       0       0       0       0       0       0       0       0
  6069 ;;      Temps:          1       0       0       0       0       0       0       0       0       0       0       0       
      +0       0       0       0       0       0       0       0       0       0       0       0       0       0       0
  6070 ;;      Totals:        11      16       0       0       0       0       0       0       0       0       0       0       
      +0       0       0       0       0       0       0       0       0       0       0       0       0       0       0
  6071 ;;Total ram usage:       27 bytes
  6072 ;; Hardware stack levels used:    1
  6073 ;; Hardware stack levels required when called:    3
  6074 ;; This function calls:
  6075 ;;		Nothing
  6076 ;; This function is called by:
  6077 ;;		_dtoa
  6078 ;; This function uses a non-reentrant model
  6079 ;;
  6080                           
  6081                           
  6082                           ;psect for function ___aodiv
  6083  018F                     ___aodiv:	
  6084  018F                     l1528:	
  6085                           ;incstack = 0
  6086                           ; Regs used in ___aodiv: [wreg+fsr1l+fsr1h+status,2+status,0]
  6087                           
  6088  018F  01F2               	clrf	___aodiv@sign
  6089  0190                     l1530:	
  6090  0190  3020               	movlw	low ___aodiv@divisor
  6091  0191  0086               	movwf	6
  6092  0192  3000               	movlw	high ___aodiv@divisor
  6093  0193  0087               	movwf	7
  6094  0194  3F47               	moviw [7]fsr1
  6095  0195  00F0               	movwf	??___aodiv
  6096  0196  1FF0               	btfss	??___aodiv,7
  6097  0197  2999               	goto	u801
  6098  0198  299A               	goto	u800
  6099  0199                     u801:	
  6100  0199  29BB               	goto	l1534
  6101  019A                     u800:	
  6102  019A                     l1532:	
  6103  019A  0140               	movlb	0	; select bank0
  6104  019B  09A0               	comf	___aodiv@divisor,f
  6105  019C  09A1               	comf	___aodiv@divisor+1,f
  6106  019D  09A2               	comf	___aodiv@divisor+2,f
  6107  019E  09A3               	comf	___aodiv@divisor+3,f
  6108  019F  09A4               	comf	___aodiv@divisor+4,f
  6109  01A0  09A5               	comf	___aodiv@divisor+5,f
  6110  01A1  09A6               	comf	___aodiv@divisor+6,f
  6111  01A2  09A7               	comf	___aodiv@divisor+7,f
  6112  01A3  0AA0               	incf	___aodiv@divisor,f
  6113  01A4  1D03               	skipz
  6114  01A5  29B9               	goto	u81lld
  6115  01A6  0AA1               	incf	___aodiv@divisor+1,f
  6116  01A7  1D03               	skipz
  6117  01A8  29B9               	goto	u81lld
  6118  01A9  0AA2               	incf	___aodiv@divisor+2,f
  6119  01AA  1D03               	skipz
  6120  01AB  29B9               	goto	u81lld
  6121  01AC  0AA3               	incf	___aodiv@divisor+3,f
  6122  01AD  1D03               	skipz
  6123  01AE  29B9               	goto	u81lld
  6124  01AF  0AA4               	incf	___aodiv@divisor+4,f
  6125  01B0  1D03               	skipz
  6126  01B1  29B9               	goto	u81lld
  6127  01B2  0AA5               	incf	___aodiv@divisor+5,f
  6128  01B3  1D03               	skipz
  6129  01B4  29B9               	goto	u81lld
  6130  01B5  0AA6               	incf	___aodiv@divisor+6,f
  6131  01B6  1D03               	skipz
  6132  01B7  29B9               	goto	u81lld
  6133  01B8  0AA7               	incf	___aodiv@divisor+7,f
  6134  01B9                     u81lld:	
  6135  01B9  01F2               	clrf	___aodiv@sign
  6136  01BA  0AF2               	incf	___aodiv@sign,f
  6137  01BB                     l1534:	
  6138  01BB  3028               	movlw	low ___aodiv@dividend
  6139  01BC  0086               	movwf	6
  6140  01BD  3000               	movlw	high ___aodiv@dividend
  6141  01BE  0087               	movwf	7
  6142  01BF  3F47               	moviw [7]fsr1
  6143  01C0  00F0               	movwf	??___aodiv
  6144  01C1  1FF0               	btfss	??___aodiv,7
  6145  01C2  29C4               	goto	u821
  6146  01C3  29C5               	goto	u820
  6147  01C4                     u821:	
  6148  01C4  29E8               	goto	l1540
  6149  01C5                     u820:	
  6150  01C5                     l1536:	
  6151  01C5  0140               	movlb	0	; select bank0
  6152  01C6  09A8               	comf	___aodiv@dividend,f
  6153  01C7  09A9               	comf	___aodiv@dividend+1,f
  6154  01C8  09AA               	comf	___aodiv@dividend+2,f
  6155  01C9  09AB               	comf	___aodiv@dividend+3,f
  6156  01CA  09AC               	comf	___aodiv@dividend+4,f
  6157  01CB  09AD               	comf	___aodiv@dividend+5,f
  6158  01CC  09AE               	comf	___aodiv@dividend+6,f
  6159  01CD  09AF               	comf	___aodiv@dividend+7,f
  6160  01CE  0AA8               	incf	___aodiv@dividend,f
  6161  01CF  1D03               	skipz
  6162  01D0  29E4               	goto	u83lld
  6163  01D1  0AA9               	incf	___aodiv@dividend+1,f
  6164  01D2  1D03               	skipz
  6165  01D3  29E4               	goto	u83lld
  6166  01D4  0AAA               	incf	___aodiv@dividend+2,f
  6167  01D5  1D03               	skipz
  6168  01D6  29E4               	goto	u83lld
  6169  01D7  0AAB               	incf	___aodiv@dividend+3,f
  6170  01D8  1D03               	skipz
  6171  01D9  29E4               	goto	u83lld
  6172  01DA  0AAC               	incf	___aodiv@dividend+4,f
  6173  01DB  1D03               	skipz
  6174  01DC  29E4               	goto	u83lld
  6175  01DD  0AAD               	incf	___aodiv@dividend+5,f
  6176  01DE  1D03               	skipz
  6177  01DF  29E4               	goto	u83lld
  6178  01E0  0AAE               	incf	___aodiv@dividend+6,f
  6179  01E1  1D03               	skipz
  6180  01E2  29E4               	goto	u83lld
  6181  01E3  0AAF               	incf	___aodiv@dividend+7,f
  6182  01E4                     u83lld:	
  6183  01E4                     l1538:	
  6184  01E4  3001               	movlw	1
  6185  01E5  00F0               	movwf	??___aodiv
  6186  01E6  0870               	movf	??___aodiv,w
  6187  01E7  06F2               	xorwf	___aodiv@sign,f
  6188  01E8                     l1540:	
  6189  01E8  3073               	movlw	low ___aodiv@quotient
  6190  01E9  0086               	movwf	6
  6191  01EA  3000               	movlw	high ___aodiv@quotient
  6192  01EB  0087               	movwf	7
  6193  01EC  3008               	movlw	8
  6194  01ED  00F0               	movwf	??___aodiv
  6195  01EE  3000               	movlw	0
  6196  01EF                     u840:	
  6197  01EF  001E               	movwi fsr1++
  6198  01F0  0BF0               	decfsz	??___aodiv,f
  6199  01F1  29EF               	goto	u840
  6200  01F2                     l1542:	
  6201  01F2  0140               	movlb	0	; select bank0
  6202  01F3  0820               	movf	___aodiv@divisor,w
  6203  01F4  0421               	iorwf	___aodiv@divisor+1,w
  6204  01F5  0422               	iorwf	___aodiv@divisor+2,w
  6205  01F6  0423               	iorwf	___aodiv@divisor+3,w
  6206  01F7  0424               	iorwf	___aodiv@divisor+4,w
  6207  01F8  0425               	iorwf	___aodiv@divisor+5,w
  6208  01F9  0426               	iorwf	___aodiv@divisor+6,w
  6209  01FA  0427               	iorwf	___aodiv@divisor+7,w
  6210  01FB  1903               	skipnz
  6211  01FC  29FE               	goto	u851
  6212  01FD  29FF               	goto	u850
  6213  01FE                     u851:	
  6214  01FE  2A5B               	goto	l1562
  6215  01FF                     u850:	
  6216  01FF                     l1544:	
  6217  01FF  01F1               	clrf	___aodiv@counter
  6218  0200  0AF1               	incf	___aodiv@counter,f
  6219  0201  2A0E               	goto	l1550
  6220  0202                     l1546:	
  6221  0202  35A0               	lslf	___aodiv@divisor,f
  6222  0203  0DA1               	rlf	___aodiv@divisor+1,f
  6223  0204  0DA2               	rlf	___aodiv@divisor+2,f
  6224  0205  0DA3               	rlf	___aodiv@divisor+3,f
  6225  0206  0DA4               	rlf	___aodiv@divisor+4,f
  6226  0207  0DA5               	rlf	___aodiv@divisor+5,f
  6227  0208  0DA6               	rlf	___aodiv@divisor+6,f
  6228  0209  0DA7               	rlf	___aodiv@divisor+7,f
  6229  020A                     l1548:	
  6230  020A  3001               	movlw	1
  6231  020B  00F0               	movwf	??___aodiv
  6232  020C  0870               	movf	??___aodiv,w
  6233  020D  07F1               	addwf	___aodiv@counter,f
  6234  020E                     l1550:	
  6235  020E  1FA7               	btfss	___aodiv@divisor+7,7
  6236  020F  2A11               	goto	u861
  6237  0210  2A12               	goto	u860
  6238  0211                     u861:	
  6239  0211  2A02               	goto	l1546
  6240  0212                     u860:	
  6241  0212                     l1552:	
  6242  0212  35F3               	lslf	___aodiv@quotient,f
  6243  0213  0DF4               	rlf	___aodiv@quotient+1,f
  6244  0214  0DF5               	rlf	___aodiv@quotient+2,f
  6245  0215  0DF6               	rlf	___aodiv@quotient+3,f
  6246  0216  0DF7               	rlf	___aodiv@quotient+4,f
  6247  0217  0DF8               	rlf	___aodiv@quotient+5,f
  6248  0218  0DF9               	rlf	___aodiv@quotient+6,f
  6249  0219  0DFA               	rlf	___aodiv@quotient+7,f
  6250  021A                     l1554:	
  6251  021A  0827               	movf	___aodiv@divisor+7,w
  6252  021B  022F               	subwf	___aodiv@dividend+7,w
  6253  021C  1D03               	skipz
  6254  021D  2A38               	goto	u875
  6255  021E  0826               	movf	___aodiv@divisor+6,w
  6256  021F  022E               	subwf	___aodiv@dividend+6,w
  6257  0220  1D03               	skipz
  6258  0221  2A38               	goto	u875
  6259  0222  0825               	movf	___aodiv@divisor+5,w
  6260  0223  022D               	subwf	___aodiv@dividend+5,w
  6261  0224  1D03               	skipz
  6262  0225  2A38               	goto	u875
  6263  0226  0824               	movf	___aodiv@divisor+4,w
  6264  0227  022C               	subwf	___aodiv@dividend+4,w
  6265  0228  1D03               	skipz
  6266  0229  2A38               	goto	u875
  6267  022A  0823               	movf	___aodiv@divisor+3,w
  6268  022B  022B               	subwf	___aodiv@dividend+3,w
  6269  022C  1D03               	skipz
  6270  022D  2A38               	goto	u875
  6271  022E  0822               	movf	___aodiv@divisor+2,w
  6272  022F  022A               	subwf	___aodiv@dividend+2,w
  6273  0230  1D03               	skipz
  6274  0231  2A38               	goto	u875
  6275  0232  0821               	movf	___aodiv@divisor+1,w
  6276  0233  0229               	subwf	___aodiv@dividend+1,w
  6277  0234  1D03               	skipz
  6278  0235  2A38               	goto	u875
  6279  0236  0820               	movf	___aodiv@divisor,w
  6280  0237  0228               	subwf	___aodiv@dividend,w
  6281  0238                     u875:	
  6282  0238  1C03               	skipc
  6283  0239  2A3B               	goto	u871
  6284  023A  2A3C               	goto	u870
  6285  023B                     u871:	
  6286  023B  2A4D               	goto	l1560
  6287  023C                     u870:	
  6288  023C                     l1556:	
  6289  023C  0820               	movf	___aodiv@divisor,w
  6290  023D  02A8               	subwf	___aodiv@dividend,f
  6291  023E  0821               	movf	___aodiv@divisor+1,w
  6292  023F  3BA9               	subwfb	___aodiv@dividend+1,f
  6293  0240  0822               	movf	___aodiv@divisor+2,w
  6294  0241  3BAA               	subwfb	___aodiv@dividend+2,f
  6295  0242  0823               	movf	___aodiv@divisor+3,w
  6296  0243  3BAB               	subwfb	___aodiv@dividend+3,f
  6297  0244  0824               	movf	___aodiv@divisor+4,w
  6298  0245  3BAC               	subwfb	___aodiv@dividend+4,f
  6299  0246  0825               	movf	___aodiv@divisor+5,w
  6300  0247  3BAD               	subwfb	___aodiv@dividend+5,f
  6301  0248  0826               	movf	___aodiv@divisor+6,w
  6302  0249  3BAE               	subwfb	___aodiv@dividend+6,f
  6303  024A  0827               	movf	___aodiv@divisor+7,w
  6304  024B  3BAF               	subwfb	___aodiv@dividend+7,f
  6305  024C                     l1558:	
  6306  024C  1473               	bsf	___aodiv@quotient,0
  6307  024D                     l1560:	
  6308  024D  36A7               	lsrf	___aodiv@divisor+7,f
  6309  024E  0CA6               	rrf	___aodiv@divisor+6,f
  6310  024F  0CA5               	rrf	___aodiv@divisor+5,f
  6311  0250  0CA4               	rrf	___aodiv@divisor+4,f
  6312  0251  0CA3               	rrf	___aodiv@divisor+3,f
  6313  0252  0CA2               	rrf	___aodiv@divisor+2,f
  6314  0253  0CA1               	rrf	___aodiv@divisor+1,f
  6315  0254  0CA0               	rrf	___aodiv@divisor,f
  6316  0255  3001               	movlw	1
  6317  0256  02F1               	subwf	___aodiv@counter,f
  6318  0257  1D03               	btfss	3,2
  6319  0258  2A5A               	goto	u881
  6320  0259  2A5B               	goto	u880
  6321  025A                     u881:	
  6322  025A  2A12               	goto	l1552
  6323  025B                     u880:	
  6324  025B                     l1562:	
  6325  025B  0872               	movf	___aodiv@sign,w
  6326  025C  1903               	btfsc	3,2
  6327  025D  2A5F               	goto	u891
  6328  025E  2A60               	goto	u890
  6329  025F                     u891:	
  6330  025F  2A7E               	goto	l630
  6331  0260                     u890:	
  6332  0260                     l1564:	
  6333  0260  09F3               	comf	___aodiv@quotient,f
  6334  0261  09F4               	comf	___aodiv@quotient+1,f
  6335  0262  09F5               	comf	___aodiv@quotient+2,f
  6336  0263  09F6               	comf	___aodiv@quotient+3,f
  6337  0264  09F7               	comf	___aodiv@quotient+4,f
  6338  0265  09F8               	comf	___aodiv@quotient+5,f
  6339  0266  09F9               	comf	___aodiv@quotient+6,f
  6340  0267  09FA               	comf	___aodiv@quotient+7,f
  6341  0268  0AF3               	incf	___aodiv@quotient,f
  6342  0269  1D03               	skipz
  6343  026A  2A7E               	goto	u90lld
  6344  026B  0AF4               	incf	___aodiv@quotient+1,f
  6345  026C  1D03               	skipz
  6346  026D  2A7E               	goto	u90lld
  6347  026E  0AF5               	incf	___aodiv@quotient+2,f
  6348  026F  1D03               	skipz
  6349  0270  2A7E               	goto	u90lld
  6350  0271  0AF6               	incf	___aodiv@quotient+3,f
  6351  0272  1D03               	skipz
  6352  0273  2A7E               	goto	u90lld
  6353  0274  0AF7               	incf	___aodiv@quotient+4,f
  6354  0275  1D03               	skipz
  6355  0276  2A7E               	goto	u90lld
  6356  0277  0AF8               	incf	___aodiv@quotient+5,f
  6357  0278  1D03               	skipz
  6358  0279  2A7E               	goto	u90lld
  6359  027A  0AF9               	incf	___aodiv@quotient+6,f
  6360  027B  1D03               	skipz
  6361  027C  2A7E               	goto	u90lld
  6362  027D  0AFA               	incf	___aodiv@quotient+7,f
  6363  027E                     u90lld:	
  6364  027E                     l630:	
  6365  027E  0873               	movf	___aodiv@quotient,w
  6366  027F  0140               	movlb	0	; select bank0
  6367  0280  00A0               	movwf	?___aodiv
  6368  0281  0874               	movf	___aodiv@quotient+1,w
  6369  0282  00A1               	movwf	?___aodiv+1
  6370  0283  0875               	movf	___aodiv@quotient+2,w
  6371  0284  00A2               	movwf	?___aodiv+2
  6372  0285  0876               	movf	___aodiv@quotient+3,w
  6373  0286  00A3               	movwf	?___aodiv+3
  6374  0287  0877               	movf	___aodiv@quotient+4,w
  6375  0288  00A4               	movwf	?___aodiv+4
  6376  0289  0878               	movf	___aodiv@quotient+5,w
  6377  028A  00A5               	movwf	?___aodiv+5
  6378  028B  0879               	movf	___aodiv@quotient+6,w
  6379  028C  00A6               	movwf	?___aodiv+6
  6380  028D  087A               	movf	___aodiv@quotient+7,w
  6381  028E  00A7               	movwf	?___aodiv+7
  6382  028F                     l631:	
  6383  028F  0008               	return
  6384  0290                     __end_of___aodiv:	
  6385                           
  6386                           	psect	text15
  6387  06DA                     __ptext15:	
  6388 ;; *************** function _millis *****************
  6389 ;; Defined at:
  6390 ;;		line 55 in file "main.c"
  6391 ;; Parameters:    Size  Location     Type
  6392 ;;		None
  6393 ;; Auto vars:     Size  Location     Type
  6394 ;;		None
  6395 ;; Return value:  Size  Location     Type
  6396 ;;                  4    0[COMMON] unsigned long 
  6397 ;; Registers used:
  6398 ;;		wreg
  6399 ;; Tracked objects:
  6400 ;;		On entry : 0/0
  6401 ;;		On exit  : 0/0
  6402 ;;		Unchanged: 0/0
  6403 ;; Data sizes:     COMMON   BANK0   BANK1   BANK2   BANK3   BANK4   BANK5   BANK6   BANK7   BANK8   BANK9  BANK10  BANK1
      +1  BANK12  BANK13  BANK14  BANK15  BANK16  BANK17  BANK18  BANK19  BANK20  BANK21  BANK22  BANK23  BANK24  BANK25
  6404 ;;      Params:         4       0       0       0       0       0       0       0       0       0       0       0       
      +0       0       0       0       0       0       0       0       0       0       0       0       0       0       0
  6405 ;;      Locals:         0       0       0       0       0       0       0       0       0       0       0       0       
      +0       0       0       0       0       0       0       0       0       0       0       0       0       0       0
  6406 ;;      Temps:          0       0       0       0       0       0       0       0       0       0       0       0       
      +0       0       0       0       0       0       0       0       0       0       0       0       0       0       0
  6407 ;;      Totals:         4       0       0       0       0       0       0       0       0       0       0       0       
      +0       0       0       0       0       0       0       0       0       0       0       0       0       0       0
  6408 ;;Total ram usage:        4 bytes
  6409 ;; Hardware stack levels used:    1
  6410 ;; Hardware stack levels required when called:    3
  6411 ;; This function calls:
  6412 ;;		Nothing
  6413 ;; This function is called by:
  6414 ;;		_updateState
  6415 ;;		_main
  6416 ;; This function uses a non-reentrant model
  6417 ;;
  6418                           
  6419                           
  6420                           ;psect for function _millis
  6421  06DA                     _millis:	
  6422  06DA                     l1790:	
  6423                           ;incstack = 0
  6424                           ; Regs used in _millis: [wreg]
  6425                           
  6426                           
  6427                           ;main.c: 56:     return ticker;
  6428  06DA  0141               	movlb	1	; select bank1
  6429  06DB  0827               	movf	(_ticker+3)^(0+128),w	;volatile
  6430  06DC  00F3               	movwf	?_millis+3
  6431  06DD  0826               	movf	(_ticker+2)^(0+128),w	;volatile
  6432  06DE  00F2               	movwf	?_millis+2
  6433  06DF  0825               	movf	(_ticker+1)^(0+128),w	;volatile
  6434  06E0  00F1               	movwf	?_millis+1
  6435  06E1  0824               	movf	_ticker^(0+128),w	;volatile
  6436  06E2  00F0               	movwf	?_millis
  6437  06E3                     l276:	
  6438  06E3  0008               	return
  6439  06E4                     __end_of_millis:	
  6440                           
  6441                           	psect	text16
  6442  06A6                     __ptext16:	
  6443 ;; *************** function _SYSTEM_Initialize *****************
  6444 ;; Defined at:
  6445 ;;		line 50 in file "mcc_generated_files/mcc.c"
  6446 ;; Parameters:    Size  Location     Type
  6447 ;;		None
  6448 ;; Auto vars:     Size  Location     Type
  6449 ;;		None
  6450 ;; Return value:  Size  Location     Type
  6451 ;;                  1    wreg      void 
  6452 ;; Registers used:
  6453 ;;		wreg, status,2, status,0, pclath, cstack
  6454 ;; Tracked objects:
  6455 ;;		On entry : 0/0
  6456 ;;		On exit  : 0/0
  6457 ;;		Unchanged: 0/0
  6458 ;; Data sizes:     COMMON   BANK0   BANK1   BANK2   BANK3   BANK4   BANK5   BANK6   BANK7   BANK8   BANK9  BANK10  BANK1
      +1  BANK12  BANK13  BANK14  BANK15  BANK16  BANK17  BANK18  BANK19  BANK20  BANK21  BANK22  BANK23  BANK24  BANK25
  6459 ;;      Params:         0       0       0       0       0       0       0       0       0       0       0       0       
      +0       0       0       0       0       0       0       0       0       0       0       0       0       0       0
  6460 ;;      Locals:         0       0       0       0       0       0       0       0       0       0       0       0       
      +0       0       0       0       0       0       0       0       0       0       0       0       0       0       0
  6461 ;;      Temps:          0       0       0       0       0       0       0       0       0       0       0       0       
      +0       0       0       0       0       0       0       0       0       0       0       0       0       0       0
  6462 ;;      Totals:         0       0       0       0       0       0       0       0       0       0       0       0       
      +0       0       0       0       0       0       0       0       0       0       0       0       0       0       0
  6463 ;;Total ram usage:        0 bytes
  6464 ;; Hardware stack levels used:    1
  6465 ;; Hardware stack levels required when called:    5
  6466 ;; This function calls:
  6467 ;;		_EUSART1_Initialize
  6468 ;;		_OSCILLATOR_Initialize
  6469 ;;		_PIN_MANAGER_Initialize
  6470 ;;		_PMD_Initialize
  6471 ;;		_TMR0_Initialize
  6472 ;; This function is called by:
  6473 ;;		_main
  6474 ;; This function uses a non-reentrant model
  6475 ;;
  6476                           
  6477                           
  6478                           ;psect for function _SYSTEM_Initialize
  6479  06A6                     _SYSTEM_Initialize:	
  6480  06A6                     l1806:	
  6481                           ;incstack = 0
  6482                           ; Regs used in _SYSTEM_Initialize: [wreg+status,2+status,0+pclath+cstack]
  6483                           
  6484                           
  6485                           ;mcc_generated_files/mcc.c: 52:     PMD_Initialize();
  6486  06A6  3186  26EE  3186   	fcall	_PMD_Initialize
  6487  06A9                     l1808:	
  6488                           
  6489                           ;mcc_generated_files/mcc.c: 53:     PIN_MANAGER_Initialize();
  6490  06A9  3185  25C5  3186   	fcall	_PIN_MANAGER_Initialize
  6491  06AC                     l1810:	
  6492                           
  6493                           ;mcc_generated_files/mcc.c: 54:     OSCILLATOR_Initialize();
  6494  06AC  3186  26C5  3186   	fcall	_OSCILLATOR_Initialize
  6495  06AF                     l1812:	
  6496                           
  6497                           ;mcc_generated_files/mcc.c: 55:     TMR0_Initialize();
  6498  06AF  3186  266F  3186   	fcall	_TMR0_Initialize
  6499  06B2                     l1814:	
  6500                           
  6501                           ;mcc_generated_files/mcc.c: 56:     EUSART1_Initialize();
  6502  06B2  3186  261A  3186   	fcall	_EUSART1_Initialize
  6503  06B5                     l52:	
  6504  06B5  0008               	return
  6505  06B6                     __end_of_SYSTEM_Initialize:	
  6506                           
  6507                           	psect	text17
  6508  066F                     __ptext17:	
  6509 ;; *************** function _TMR0_Initialize *****************
  6510 ;; Defined at:
  6511 ;;		line 61 in file "mcc_generated_files/tmr0.c"
  6512 ;; Parameters:    Size  Location     Type
  6513 ;;		None
  6514 ;; Auto vars:     Size  Location     Type
  6515 ;;		None
  6516 ;; Return value:  Size  Location     Type
  6517 ;;                  1    wreg      void 
  6518 ;; Registers used:
  6519 ;;		wreg, status,2, status,0, pclath, cstack
  6520 ;; Tracked objects:
  6521 ;;		On entry : 0/0
  6522 ;;		On exit  : 0/0
  6523 ;;		Unchanged: 0/0
  6524 ;; Data sizes:     COMMON   BANK0   BANK1   BANK2   BANK3   BANK4   BANK5   BANK6   BANK7   BANK8   BANK9  BANK10  BANK1
      +1  BANK12  BANK13  BANK14  BANK15  BANK16  BANK17  BANK18  BANK19  BANK20  BANK21  BANK22  BANK23  BANK24  BANK25
  6525 ;;      Params:         0       0       0       0       0       0       0       0       0       0       0       0       
      +0       0       0       0       0       0       0       0       0       0       0       0       0       0       0
  6526 ;;      Locals:         0       0       0       0       0       0       0       0       0       0       0       0       
      +0       0       0       0       0       0       0       0       0       0       0       0       0       0       0
  6527 ;;      Temps:          0       0       0       0       0       0       0       0       0       0       0       0       
      +0       0       0       0       0       0       0       0       0       0       0       0       0       0       0
  6528 ;;      Totals:         0       0       0       0       0       0       0       0       0       0       0       0       
      +0       0       0       0       0       0       0       0       0       0       0       0       0       0       0
  6529 ;;Total ram usage:        0 bytes
  6530 ;; Hardware stack levels used:    1
  6531 ;; Hardware stack levels required when called:    4
  6532 ;; This function calls:
  6533 ;;		_TMR0_SetInterruptHandler
  6534 ;; This function is called by:
  6535 ;;		_SYSTEM_Initialize
  6536 ;; This function uses a non-reentrant model
  6537 ;;
  6538                           
  6539                           
  6540                           ;psect for function _TMR0_Initialize
  6541  066F                     _TMR0_Initialize:	
  6542  066F                     l1764:	
  6543                           ;incstack = 0
  6544                           ; Regs used in _TMR0_Initialize: [wreg+status,2+status,0+pclath+cstack]
  6545                           
  6546                           
  6547                           ;mcc_generated_files/tmr0.c: 66:     T0CON1 = 0x40;
  6548  066F  3040               	movlw	64
  6549  0670  014B               	movlb	11	; select bank11
  6550  0671  009F               	movwf	31	;volatile
  6551                           
  6552                           ;mcc_generated_files/tmr0.c: 69:     TMR0H = 0xF9;
  6553  0672  30F9               	movlw	249
  6554  0673  009D               	movwf	29	;volatile
  6555  0674                     l1766:	
  6556                           
  6557                           ;mcc_generated_files/tmr0.c: 72:     TMR0L = 0x00;
  6558  0674  019C               	clrf	28	;volatile
  6559  0675                     l1768:	
  6560                           
  6561                           ;mcc_generated_files/tmr0.c: 75:     PIR0bits.TMR0IF = 0;
  6562  0675  014E               	movlb	14	; select bank14
  6563  0676  128C               	bcf	12,5	;volatile
  6564  0677                     l1770:	
  6565                           
  6566                           ;mcc_generated_files/tmr0.c: 78:     PIE0bits.TMR0IE = 1;
  6567  0677  1696               	bsf	22,5	;volatile
  6568  0678                     l1772:	
  6569                           
  6570                           ;mcc_generated_files/tmr0.c: 81:     TMR0_SetInterruptHandler(TMR0_DefaultInterruptHandl
      +                          er);
  6571  0678  301A               	movlw	low _TMR0_DefaultInterruptHandler
  6572  0679  00F0               	movwf	TMR0_SetInterruptHandler@InterruptHandler
  6573  067A  3007               	movlw	high _TMR0_DefaultInterruptHandler
  6574  067B  00F1               	movwf	TMR0_SetInterruptHandler@InterruptHandler+1
  6575  067C  3187  2702  3186   	fcall	_TMR0_SetInterruptHandler
  6576  067F                     l1774:	
  6577                           
  6578                           ;mcc_generated_files/tmr0.c: 84:     T0CON0 = 0x80;
  6579  067F  3080               	movlw	128
  6580  0680  014B               	movlb	11	; select bank11
  6581  0681  009E               	movwf	30	;volatile
  6582  0682                     l137:	
  6583  0682  0008               	return
  6584  0683                     __end_of_TMR0_Initialize:	
  6585                           
  6586                           	psect	text18
  6587  0702                     __ptext18:	
  6588 ;; *************** function _TMR0_SetInterruptHandler *****************
  6589 ;; Defined at:
  6590 ;;		line 134 in file "mcc_generated_files/tmr0.c"
  6591 ;; Parameters:    Size  Location     Type
  6592 ;;  InterruptHan    2    0[COMMON] PTR FTN()void 
  6593 ;;		 -> timer_callback(1), TMR0_DefaultInterruptHandler(1), 
  6594 ;; Auto vars:     Size  Location     Type
  6595 ;;		None
  6596 ;; Return value:  Size  Location     Type
  6597 ;;                  1    wreg      void 
  6598 ;; Registers used:
  6599 ;;		wreg
  6600 ;; Tracked objects:
  6601 ;;		On entry : 0/0
  6602 ;;		On exit  : 0/0
  6603 ;;		Unchanged: 0/0
  6604 ;; Data sizes:     COMMON   BANK0   BANK1   BANK2   BANK3   BANK4   BANK5   BANK6   BANK7   BANK8   BANK9  BANK10  BANK1
      +1  BANK12  BANK13  BANK14  BANK15  BANK16  BANK17  BANK18  BANK19  BANK20  BANK21  BANK22  BANK23  BANK24  BANK25
  6605 ;;      Params:         2       0       0       0       0       0       0       0       0       0       0       0       
      +0       0       0       0       0       0       0       0       0       0       0       0       0       0       0
  6606 ;;      Locals:         0       0       0       0       0       0       0       0       0       0       0       0       
      +0       0       0       0       0       0       0       0       0       0       0       0       0       0       0
  6607 ;;      Temps:          0       0       0       0       0       0       0       0       0       0       0       0       
      +0       0       0       0       0       0       0       0       0       0       0       0       0       0       0
  6608 ;;      Totals:         2       0       0       0       0       0       0       0       0       0       0       0       
      +0       0       0       0       0       0       0       0       0       0       0       0       0       0       0
  6609 ;;Total ram usage:        2 bytes
  6610 ;; Hardware stack levels used:    1
  6611 ;; Hardware stack levels required when called:    3
  6612 ;; This function calls:
  6613 ;;		Nothing
  6614 ;; This function is called by:
  6615 ;;		_TMR0_Initialize
  6616 ;;		_main
  6617 ;; This function uses a non-reentrant model
  6618 ;;
  6619                           
  6620                           
  6621                           ;psect for function _TMR0_SetInterruptHandler
  6622  0702                     _TMR0_SetInterruptHandler:	
  6623  0702                     l1698:	
  6624                           ;incstack = 0
  6625                           ; Regs used in _TMR0_SetInterruptHandler: [wreg]
  6626                           
  6627                           
  6628                           ;mcc_generated_files/tmr0.c: 135:     TMR0_InterruptHandler = InterruptHandler;
  6629  0702  0871               	movf	TMR0_SetInterruptHandler@InterruptHandler+1,w
  6630  0703  0141               	movlb	1	; select bank1
  6631  0704  00EE               	movwf	(_TMR0_InterruptHandler+1)^(0+128)
  6632  0705  0870               	movf	TMR0_SetInterruptHandler@InterruptHandler,w
  6633  0706  00ED               	movwf	_TMR0_InterruptHandler^(0+128)
  6634  0707                     l159:	
  6635  0707  0008               	return
  6636  0708                     __end_of_TMR0_SetInterruptHandler:	
  6637                           
  6638                           	psect	text19
  6639  06EE                     __ptext19:	
  6640 ;; *************** function _PMD_Initialize *****************
  6641 ;; Defined at:
  6642 ;;		line 77 in file "mcc_generated_files/mcc.c"
  6643 ;; Parameters:    Size  Location     Type
  6644 ;;		None
  6645 ;; Auto vars:     Size  Location     Type
  6646 ;;		None
  6647 ;; Return value:  Size  Location     Type
  6648 ;;                  1    wreg      void 
  6649 ;; Registers used:
  6650 ;;		status,2
  6651 ;; Tracked objects:
  6652 ;;		On entry : 0/0
  6653 ;;		On exit  : 0/0
  6654 ;;		Unchanged: 0/0
  6655 ;; Data sizes:     COMMON   BANK0   BANK1   BANK2   BANK3   BANK4   BANK5   BANK6   BANK7   BANK8   BANK9  BANK10  BANK1
      +1  BANK12  BANK13  BANK14  BANK15  BANK16  BANK17  BANK18  BANK19  BANK20  BANK21  BANK22  BANK23  BANK24  BANK25
  6656 ;;      Params:         0       0       0       0       0       0       0       0       0       0       0       0       
      +0       0       0       0       0       0       0       0       0       0       0       0       0       0       0
  6657 ;;      Locals:         0       0       0       0       0       0       0       0       0       0       0       0       
      +0       0       0       0       0       0       0       0       0       0       0       0       0       0       0
  6658 ;;      Temps:          0       0       0       0       0       0       0       0       0       0       0       0       
      +0       0       0       0       0       0       0       0       0       0       0       0       0       0       0
  6659 ;;      Totals:         0       0       0       0       0       0       0       0       0       0       0       0       
      +0       0       0       0       0       0       0       0       0       0       0       0       0       0       0
  6660 ;;Total ram usage:        0 bytes
  6661 ;; Hardware stack levels used:    1
  6662 ;; Hardware stack levels required when called:    3
  6663 ;; This function calls:
  6664 ;;		Nothing
  6665 ;; This function is called by:
  6666 ;;		_SYSTEM_Initialize
  6667 ;; This function uses a non-reentrant model
  6668 ;;
  6669                           
  6670                           
  6671                           ;psect for function _PMD_Initialize
  6672  06EE                     _PMD_Initialize:	
  6673  06EE                     l1718:	
  6674                           ;incstack = 0
  6675                           ; Regs used in _PMD_Initialize: [status,2]
  6676                           
  6677                           
  6678                           ;mcc_generated_files/mcc.c: 80:     PMD0 = 0x00;
  6679  06EE  014F               	movlb	15	; select bank15
  6680  06EF  0196               	clrf	22	;volatile
  6681                           
  6682                           ;mcc_generated_files/mcc.c: 82:     PMD1 = 0x00;
  6683  06F0  0197               	clrf	23	;volatile
  6684                           
  6685                           ;mcc_generated_files/mcc.c: 84:     PMD2 = 0x00;
  6686  06F1  0198               	clrf	24	;volatile
  6687                           
  6688                           ;mcc_generated_files/mcc.c: 86:     PMD3 = 0x00;
  6689  06F2  0199               	clrf	25	;volatile
  6690                           
  6691                           ;mcc_generated_files/mcc.c: 88:     PMD4 = 0x00;
  6692  06F3  019A               	clrf	26	;volatile
  6693                           
  6694                           ;mcc_generated_files/mcc.c: 90:     PMD5 = 0x00;
  6695  06F4  019B               	clrf	27	;volatile
  6696  06F5                     l58:	
  6697  06F5  0008               	return
  6698  06F6                     __end_of_PMD_Initialize:	
  6699                           
  6700                           	psect	text20
  6701  05C5                     __ptext20:	
  6702 ;; *************** function _PIN_MANAGER_Initialize *****************
  6703 ;; Defined at:
  6704 ;;		line 87 in file "mcc_generated_files/pin_manager.c"
  6705 ;; Parameters:    Size  Location     Type
  6706 ;;		None
  6707 ;; Auto vars:     Size  Location     Type
  6708 ;;		None
  6709 ;; Return value:  Size  Location     Type
  6710 ;;                  1    wreg      void 
  6711 ;; Registers used:
  6712 ;;		wreg, status,2
  6713 ;; Tracked objects:
  6714 ;;		On entry : 0/0
  6715 ;;		On exit  : 0/0
  6716 ;;		Unchanged: 0/0
  6717 ;; Data sizes:     COMMON   BANK0   BANK1   BANK2   BANK3   BANK4   BANK5   BANK6   BANK7   BANK8   BANK9  BANK10  BANK1
      +1  BANK12  BANK13  BANK14  BANK15  BANK16  BANK17  BANK18  BANK19  BANK20  BANK21  BANK22  BANK23  BANK24  BANK25
  6718 ;;      Params:         0       0       0       0       0       0       0       0       0       0       0       0       
      +0       0       0       0       0       0       0       0       0       0       0       0       0       0       0
  6719 ;;      Locals:         0       0       0       0       0       0       0       0       0       0       0       0       
      +0       0       0       0       0       0       0       0       0       0       0       0       0       0       0
  6720 ;;      Temps:          0       0       0       0       0       0       0       0       0       0       0       0       
      +0       0       0       0       0       0       0       0       0       0       0       0       0       0       0
  6721 ;;      Totals:         0       0       0       0       0       0       0       0       0       0       0       0       
      +0       0       0       0       0       0       0       0       0       0       0       0       0       0       0
  6722 ;;Total ram usage:        0 bytes
  6723 ;; Hardware stack levels used:    1
  6724 ;; Hardware stack levels required when called:    3
  6725 ;; This function calls:
  6726 ;;		Nothing
  6727 ;; This function is called by:
  6728 ;;		_SYSTEM_Initialize
  6729 ;; This function uses a non-reentrant model
  6730 ;;
  6731                           
  6732                           
  6733                           ;psect for function _PIN_MANAGER_Initialize
  6734  05C5                     _PIN_MANAGER_Initialize:	
  6735  05C5                     l1720:	
  6736                           ;incstack = 0
  6737                           ; Regs used in _PIN_MANAGER_Initialize: [wreg+status,2]
  6738                           
  6739                           
  6740                           ;mcc_generated_files/pin_manager.c: 92:     LATA = 0x00;
  6741  05C5  0140               	movlb	0	; select bank0
  6742  05C6  0198               	clrf	24	;volatile
  6743                           
  6744                           ;mcc_generated_files/pin_manager.c: 93:     LATB = 0x00;
  6745  05C7  0199               	clrf	25	;volatile
  6746                           
  6747                           ;mcc_generated_files/pin_manager.c: 94:     LATC = 0x00;
  6748  05C8  019A               	clrf	26	;volatile
  6749  05C9                     l1722:	
  6750                           
  6751                           ;mcc_generated_files/pin_manager.c: 99:     TRISA = 0xDF;
  6752  05C9  30DF               	movlw	223
  6753  05CA  0092               	movwf	18	;volatile
  6754  05CB                     l1724:	
  6755                           
  6756                           ;mcc_generated_files/pin_manager.c: 100:     TRISB = 0xFF;
  6757  05CB  30FF               	movlw	255
  6758  05CC  0093               	movwf	19	;volatile
  6759  05CD                     l1726:	
  6760                           
  6761                           ;mcc_generated_files/pin_manager.c: 101:     TRISC = 0x97;
  6762  05CD  3097               	movlw	151
  6763  05CE  0094               	movwf	20	;volatile
  6764  05CF                     l1728:	
  6765                           
  6766                           ;mcc_generated_files/pin_manager.c: 106:     ANSELC = 0x4C;
  6767  05CF  304C               	movlw	76
  6768  05D0  017E               	movlb	62	; select bank62
  6769  05D1  00CE               	movwf	78	;volatile
  6770  05D2                     l1730:	
  6771                           
  6772                           ;mcc_generated_files/pin_manager.c: 107:     ANSELB = 0xFF;
  6773  05D2  30FF               	movlw	255
  6774  05D3  00C3               	movwf	67	;volatile
  6775  05D4                     l1732:	
  6776                           
  6777                           ;mcc_generated_files/pin_manager.c: 108:     ANSELA = 0xDF;
  6778  05D4  30DF               	movlw	223
  6779  05D5  00B8               	movwf	56	;volatile
  6780                           
  6781                           ;mcc_generated_files/pin_manager.c: 113:     WPUE = 0x00;
  6782  05D6  01E5               	clrf	101	;volatile
  6783                           
  6784                           ;mcc_generated_files/pin_manager.c: 114:     WPUB = 0x00;
  6785  05D7  01C4               	clrf	68	;volatile
  6786                           
  6787                           ;mcc_generated_files/pin_manager.c: 115:     WPUA = 0x00;
  6788  05D8  01B9               	clrf	57	;volatile
  6789                           
  6790                           ;mcc_generated_files/pin_manager.c: 116:     WPUC = 0x00;
  6791  05D9  01CF               	clrf	79	;volatile
  6792                           
  6793                           ;mcc_generated_files/pin_manager.c: 121:     ODCONA = 0x00;
  6794  05DA  01BA               	clrf	58	;volatile
  6795                           
  6796                           ;mcc_generated_files/pin_manager.c: 122:     ODCONB = 0x00;
  6797  05DB  01C5               	clrf	69	;volatile
  6798                           
  6799                           ;mcc_generated_files/pin_manager.c: 123:     ODCONC = 0x00;
  6800  05DC  01D0               	clrf	80	;volatile
  6801  05DD                     l1734:	
  6802                           
  6803                           ;mcc_generated_files/pin_manager.c: 128:     SLRCONA = 0xDF;
  6804  05DD  30DF               	movlw	223
  6805  05DE  00BB               	movwf	59	;volatile
  6806  05DF                     l1736:	
  6807                           
  6808                           ;mcc_generated_files/pin_manager.c: 129:     SLRCONB = 0xFF;
  6809  05DF  30FF               	movlw	255
  6810  05E0  00C6               	movwf	70	;volatile
  6811  05E1                     l1738:	
  6812                           
  6813                           ;mcc_generated_files/pin_manager.c: 130:     SLRCONC = 0xDF;
  6814  05E1  30DF               	movlw	223
  6815  05E2  00D1               	movwf	81	;volatile
  6816  05E3                     l1740:	
  6817                           
  6818                           ;mcc_generated_files/pin_manager.c: 135:     INLVLA = 0xFF;
  6819  05E3  30FF               	movlw	255
  6820  05E4  00BC               	movwf	60	;volatile
  6821  05E5                     l1742:	
  6822                           
  6823                           ;mcc_generated_files/pin_manager.c: 136:     INLVLB = 0xFF;
  6824  05E5  30FF               	movlw	255
  6825  05E6  00C7               	movwf	71	;volatile
  6826  05E7                     l1744:	
  6827                           
  6828                           ;mcc_generated_files/pin_manager.c: 137:     INLVLC = 0xDF;
  6829  05E7  30DF               	movlw	223
  6830  05E8  00D2               	movwf	82	;volatile
  6831  05E9                     l1746:	
  6832                           
  6833                           ;mcc_generated_files/pin_manager.c: 138:     INLVLE = 0x08;
  6834  05E9  3008               	movlw	8
  6835  05EA  00E8               	movwf	104	;volatile
  6836  05EB                     l1748:	
  6837                           
  6838                           ;mcc_generated_files/pin_manager.c: 147:     RX1PPS = 0x17;
  6839  05EB  3017               	movlw	23
  6840  05EC  017D               	movlb	61	; select bank61
  6841  05ED  00CB               	movwf	75	;volatile
  6842  05EE                     l1750:	
  6843                           
  6844                           ;mcc_generated_files/pin_manager.c: 148:     RC6PPS = 0x0D;
  6845  05EE  300D               	movlw	13
  6846  05EF  017E               	movlb	62	; select bank62
  6847  05F0  00A6               	movwf	38	;volatile
  6848  05F1                     l111:	
  6849  05F1  0008               	return
  6850  05F2                     __end_of_PIN_MANAGER_Initialize:	
  6851                           
  6852                           	psect	text21
  6853  06C5                     __ptext21:	
  6854 ;; *************** function _OSCILLATOR_Initialize *****************
  6855 ;; Defined at:
  6856 ;;		line 59 in file "mcc_generated_files/mcc.c"
  6857 ;; Parameters:    Size  Location     Type
  6858 ;;		None
  6859 ;; Auto vars:     Size  Location     Type
  6860 ;;		None
  6861 ;; Return value:  Size  Location     Type
  6862 ;;                  1    wreg      void 
  6863 ;; Registers used:
  6864 ;;		wreg, status,2
  6865 ;; Tracked objects:
  6866 ;;		On entry : 0/0
  6867 ;;		On exit  : 0/0
  6868 ;;		Unchanged: 0/0
  6869 ;; Data sizes:     COMMON   BANK0   BANK1   BANK2   BANK3   BANK4   BANK5   BANK6   BANK7   BANK8   BANK9  BANK10  BANK1
      +1  BANK12  BANK13  BANK14  BANK15  BANK16  BANK17  BANK18  BANK19  BANK20  BANK21  BANK22  BANK23  BANK24  BANK25
  6870 ;;      Params:         0       0       0       0       0       0       0       0       0       0       0       0       
      +0       0       0       0       0       0       0       0       0       0       0       0       0       0       0
  6871 ;;      Locals:         0       0       0       0       0       0       0       0       0       0       0       0       
      +0       0       0       0       0       0       0       0       0       0       0       0       0       0       0
  6872 ;;      Temps:          0       0       0       0       0       0       0       0       0       0       0       0       
      +0       0       0       0       0       0       0       0       0       0       0       0       0       0       0
  6873 ;;      Totals:         0       0       0       0       0       0       0       0       0       0       0       0       
      +0       0       0       0       0       0       0       0       0       0       0       0       0       0       0
  6874 ;;Total ram usage:        0 bytes
  6875 ;; Hardware stack levels used:    1
  6876 ;; Hardware stack levels required when called:    3
  6877 ;; This function calls:
  6878 ;;		Nothing
  6879 ;; This function is called by:
  6880 ;;		_SYSTEM_Initialize
  6881 ;; This function uses a non-reentrant model
  6882 ;;
  6883                           
  6884                           
  6885                           ;psect for function _OSCILLATOR_Initialize
  6886  06C5                     _OSCILLATOR_Initialize:	
  6887  06C5                     l1752:	
  6888                           ;incstack = 0
  6889                           ; Regs used in _OSCILLATOR_Initialize: [wreg+status,2]
  6890                           
  6891                           
  6892                           ;mcc_generated_files/mcc.c: 62:     OSCCON1 = 0x62;
  6893  06C5  3062               	movlw	98
  6894  06C6  0151               	movlb	17	; select bank17
  6895  06C7  008D               	movwf	13	;volatile
  6896  06C8                     l1754:	
  6897                           
  6898                           ;mcc_generated_files/mcc.c: 64:     OSCCON3 = 0x00;
  6899  06C8  018F               	clrf	15	;volatile
  6900  06C9                     l1756:	
  6901                           
  6902                           ;mcc_generated_files/mcc.c: 66:     OSCEN = 0x00;
  6903  06C9  0191               	clrf	17	;volatile
  6904                           
  6905                           ;mcc_generated_files/mcc.c: 68:     OSCFRQ = 0x02;
  6906  06CA  3002               	movlw	2
  6907  06CB  0093               	movwf	19	;volatile
  6908  06CC                     l1758:	
  6909                           
  6910                           ;mcc_generated_files/mcc.c: 70:     OSCSTAT = 0x00;
  6911  06CC  0190               	clrf	16	;volatile
  6912  06CD                     l1760:	
  6913                           
  6914                           ;mcc_generated_files/mcc.c: 72:     OSCTUNE = 0x00;
  6915  06CD  0192               	clrf	18	;volatile
  6916  06CE                     l1762:	
  6917                           
  6918                           ;mcc_generated_files/mcc.c: 74:     ACTCON = 0x00;
  6919  06CE  0194               	clrf	20	;volatile
  6920  06CF                     l55:	
  6921  06CF  0008               	return
  6922  06D0                     __end_of_OSCILLATOR_Initialize:	
  6923                           
  6924                           	psect	text22
  6925  061A                     __ptext22:	
  6926 ;; *************** function _EUSART1_Initialize *****************
  6927 ;; Defined at:
  6928 ;;		line 66 in file "mcc_generated_files/eusart1.c"
  6929 ;; Parameters:    Size  Location     Type
  6930 ;;		None
  6931 ;; Auto vars:     Size  Location     Type
  6932 ;;		None
  6933 ;; Return value:  Size  Location     Type
  6934 ;;                  1    wreg      void 
  6935 ;; Registers used:
  6936 ;;		wreg, status,2, status,0, pclath, cstack
  6937 ;; Tracked objects:
  6938 ;;		On entry : 0/0
  6939 ;;		On exit  : 0/0
  6940 ;;		Unchanged: 0/0
  6941 ;; Data sizes:     COMMON   BANK0   BANK1   BANK2   BANK3   BANK4   BANK5   BANK6   BANK7   BANK8   BANK9  BANK10  BANK1
      +1  BANK12  BANK13  BANK14  BANK15  BANK16  BANK17  BANK18  BANK19  BANK20  BANK21  BANK22  BANK23  BANK24  BANK25
  6942 ;;      Params:         0       0       0       0       0       0       0       0       0       0       0       0       
      +0       0       0       0       0       0       0       0       0       0       0       0       0       0       0
  6943 ;;      Locals:         0       0       0       0       0       0       0       0       0       0       0       0       
      +0       0       0       0       0       0       0       0       0       0       0       0       0       0       0
  6944 ;;      Temps:          0       0       0       0       0       0       0       0       0       0       0       0       
      +0       0       0       0       0       0       0       0       0       0       0       0       0       0       0
  6945 ;;      Totals:         0       0       0       0       0       0       0       0       0       0       0       0       
      +0       0       0       0       0       0       0       0       0       0       0       0       0       0       0
  6946 ;;Total ram usage:        0 bytes
  6947 ;; Hardware stack levels used:    1
  6948 ;; Hardware stack levels required when called:    4
  6949 ;; This function calls:
  6950 ;;		_EUSART1_SetErrorHandler
  6951 ;;		_EUSART1_SetFramingErrorHandler
  6952 ;;		_EUSART1_SetOverrunErrorHandler
  6953 ;; This function is called by:
  6954 ;;		_SYSTEM_Initialize
  6955 ;; This function uses a non-reentrant model
  6956 ;;
  6957                           
  6958                           
  6959                           ;psect for function _EUSART1_Initialize
  6960  061A                     _EUSART1_Initialize:	
  6961  061A                     l1776:	
  6962                           ;incstack = 0
  6963                           ; Regs used in _EUSART1_Initialize: [wreg+status,2+status,0+pclath+cstack]
  6964                           
  6965                           
  6966                           ;mcc_generated_files/eusart1.c: 71:     BAUD1CON = 0x08;
  6967  061A  3008               	movlw	8
  6968  061B  0142               	movlb	2	; select bank2
  6969  061C  009F               	movwf	31	;volatile
  6970                           
  6971                           ;mcc_generated_files/eusart1.c: 74:     RC1STA = 0x90;
  6972  061D  3090               	movlw	144
  6973  061E  009D               	movwf	29	;volatile
  6974                           
  6975                           ;mcc_generated_files/eusart1.c: 77:     TX1STA = 0x24;
  6976  061F  3024               	movlw	36
  6977  0620  009E               	movwf	30	;volatile
  6978                           
  6979                           ;mcc_generated_files/eusart1.c: 80:     SP1BRGL = 0x19;
  6980  0621  3019               	movlw	25
  6981  0622  009B               	movwf	27	;volatile
  6982  0623                     l1778:	
  6983                           
  6984                           ;mcc_generated_files/eusart1.c: 83:     SP1BRGH = 0x00;
  6985  0623  019C               	clrf	28	;volatile
  6986  0624                     l1780:	
  6987                           
  6988                           ;mcc_generated_files/eusart1.c: 86:     EUSART1_SetFramingErrorHandler(EUSART1_DefaultFr
      +                          amingErrorHandler);
  6989  0624  3000               	movlw	0
  6990  0625  00F0               	movwf	EUSART1_SetFramingErrorHandler@interruptHandler
  6991  0626  3000               	movlw	0
  6992  0627  00F1               	movwf	EUSART1_SetFramingErrorHandler@interruptHandler+1
  6993  0628  3187  270E  3186   	fcall	_EUSART1_SetFramingErrorHandler
  6994  062B                     l1782:	
  6995                           
  6996                           ;mcc_generated_files/eusart1.c: 87:     EUSART1_SetOverrunErrorHandler(EUSART1_DefaultOv
      +                          errunErrorHandler);
  6997  062B  3000               	movlw	0
  6998  062C  00F0               	movwf	EUSART1_SetOverrunErrorHandler@interruptHandler
  6999  062D  3000               	movlw	0
  7000  062E  00F1               	movwf	EUSART1_SetOverrunErrorHandler@interruptHandler+1
  7001  062F  3187  2708  3186   	fcall	_EUSART1_SetOverrunErrorHandler
  7002  0632                     l1784:	
  7003                           
  7004                           ;mcc_generated_files/eusart1.c: 88:     EUSART1_SetErrorHandler(EUSART1_DefaultErrorHand
      +                          ler);
  7005  0632  3000               	movlw	0
  7006  0633  00F0               	movwf	EUSART1_SetErrorHandler@interruptHandler
  7007  0634  3000               	movlw	0
  7008  0635  00F1               	movwf	EUSART1_SetErrorHandler@interruptHandler+1
  7009  0636  3187  2714  3186   	fcall	_EUSART1_SetErrorHandler
  7010  0639                     l1786:	
  7011                           
  7012                           ;mcc_generated_files/eusart1.c: 90:     eusart1RxLastError.status = 0;
  7013  0639  0141               	movlb	1	; select bank1
  7014  063A  01B8               	clrf	_eusart1RxLastError^(0+128)	;volatile
  7015  063B                     l205:	
  7016  063B  0008               	return
  7017  063C                     __end_of_EUSART1_Initialize:	
  7018                           
  7019                           	psect	text23
  7020  0708                     __ptext23:	
  7021 ;; *************** function _EUSART1_SetOverrunErrorHandler *****************
  7022 ;; Defined at:
  7023 ;;		line 170 in file "mcc_generated_files/eusart1.c"
  7024 ;; Parameters:    Size  Location     Type
  7025 ;;  interruptHan    2    0[COMMON] PTR FTN()void 
  7026 ;;		 -> EUSART1_DefaultOverrunErrorHandler(1), 
  7027 ;; Auto vars:     Size  Location     Type
  7028 ;;		None
  7029 ;; Return value:  Size  Location     Type
  7030 ;;                  1    wreg      void 
  7031 ;; Registers used:
  7032 ;;		wreg
  7033 ;; Tracked objects:
  7034 ;;		On entry : 0/0
  7035 ;;		On exit  : 0/0
  7036 ;;		Unchanged: 0/0
  7037 ;; Data sizes:     COMMON   BANK0   BANK1   BANK2   BANK3   BANK4   BANK5   BANK6   BANK7   BANK8   BANK9  BANK10  BANK1
      +1  BANK12  BANK13  BANK14  BANK15  BANK16  BANK17  BANK18  BANK19  BANK20  BANK21  BANK22  BANK23  BANK24  BANK25
  7038 ;;      Params:         2       0       0       0       0       0       0       0       0       0       0       0       
      +0       0       0       0       0       0       0       0       0       0       0       0       0       0       0
  7039 ;;      Locals:         0       0       0       0       0       0       0       0       0       0       0       0       
      +0       0       0       0       0       0       0       0       0       0       0       0       0       0       0
  7040 ;;      Temps:          0       0       0       0       0       0       0       0       0       0       0       0       
      +0       0       0       0       0       0       0       0       0       0       0       0       0       0       0
  7041 ;;      Totals:         2       0       0       0       0       0       0       0       0       0       0       0       
      +0       0       0       0       0       0       0       0       0       0       0       0       0       0       0
  7042 ;;Total ram usage:        2 bytes
  7043 ;; Hardware stack levels used:    1
  7044 ;; Hardware stack levels required when called:    3
  7045 ;; This function calls:
  7046 ;;		Nothing
  7047 ;; This function is called by:
  7048 ;;		_EUSART1_Initialize
  7049 ;; This function uses a non-reentrant model
  7050 ;;
  7051                           
  7052                           
  7053                           ;psect for function _EUSART1_SetOverrunErrorHandler
  7054  0708                     _EUSART1_SetOverrunErrorHandler:	
  7055  0708                     l1702:	
  7056                           ;incstack = 0
  7057                           ; Regs used in _EUSART1_SetOverrunErrorHandler: [wreg]
  7058                           
  7059                           
  7060                           ;mcc_generated_files/eusart1.c: 171:     EUSART1_OverrunErrorHandler = interruptHandler;
  7061  0708  0871               	movf	EUSART1_SetOverrunErrorHandler@interruptHandler+1,w
  7062  0709  0141               	movlb	1	; select bank1
  7063  070A  00EA               	movwf	(_EUSART1_OverrunErrorHandler+1)^(0+128)
  7064  070B  0870               	movf	EUSART1_SetOverrunErrorHandler@interruptHandler,w
  7065  070C  00E9               	movwf	_EUSART1_OverrunErrorHandler^(0+128)
  7066  070D                     l253:	
  7067  070D  0008               	return
  7068  070E                     __end_of_EUSART1_SetOverrunErrorHandler:	
  7069                           
  7070                           	psect	text24
  7071  070E                     __ptext24:	
  7072 ;; *************** function _EUSART1_SetFramingErrorHandler *****************
  7073 ;; Defined at:
  7074 ;;		line 166 in file "mcc_generated_files/eusart1.c"
  7075 ;; Parameters:    Size  Location     Type
  7076 ;;  interruptHan    2    0[COMMON] PTR FTN()void 
  7077 ;;		 -> EUSART1_DefaultFramingErrorHandler(1), 
  7078 ;; Auto vars:     Size  Location     Type
  7079 ;;		None
  7080 ;; Return value:  Size  Location     Type
  7081 ;;                  1    wreg      void 
  7082 ;; Registers used:
  7083 ;;		wreg
  7084 ;; Tracked objects:
  7085 ;;		On entry : 0/0
  7086 ;;		On exit  : 0/0
  7087 ;;		Unchanged: 0/0
  7088 ;; Data sizes:     COMMON   BANK0   BANK1   BANK2   BANK3   BANK4   BANK5   BANK6   BANK7   BANK8   BANK9  BANK10  BANK1
      +1  BANK12  BANK13  BANK14  BANK15  BANK16  BANK17  BANK18  BANK19  BANK20  BANK21  BANK22  BANK23  BANK24  BANK25
  7089 ;;      Params:         2       0       0       0       0       0       0       0       0       0       0       0       
      +0       0       0       0       0       0       0       0       0       0       0       0       0       0       0
  7090 ;;      Locals:         0       0       0       0       0       0       0       0       0       0       0       0       
      +0       0       0       0       0       0       0       0       0       0       0       0       0       0       0
  7091 ;;      Temps:          0       0       0       0       0       0       0       0       0       0       0       0       
      +0       0       0       0       0       0       0       0       0       0       0       0       0       0       0
  7092 ;;      Totals:         2       0       0       0       0       0       0       0       0       0       0       0       
      +0       0       0       0       0       0       0       0       0       0       0       0       0       0       0
  7093 ;;Total ram usage:        2 bytes
  7094 ;; Hardware stack levels used:    1
  7095 ;; Hardware stack levels required when called:    3
  7096 ;; This function calls:
  7097 ;;		Nothing
  7098 ;; This function is called by:
  7099 ;;		_EUSART1_Initialize
  7100 ;; This function uses a non-reentrant model
  7101 ;;
  7102                           
  7103                           
  7104                           ;psect for function _EUSART1_SetFramingErrorHandler
  7105  070E                     _EUSART1_SetFramingErrorHandler:	
  7106  070E                     l1700:	
  7107                           ;incstack = 0
  7108                           ; Regs used in _EUSART1_SetFramingErrorHandler: [wreg]
  7109                           
  7110                           
  7111                           ;mcc_generated_files/eusart1.c: 167:     EUSART1_FramingErrorHandler = interruptHandler;
  7112  070E  0871               	movf	EUSART1_SetFramingErrorHandler@interruptHandler+1,w
  7113  070F  0141               	movlb	1	; select bank1
  7114  0710  00EC               	movwf	(_EUSART1_FramingErrorHandler+1)^(0+128)
  7115  0711  0870               	movf	EUSART1_SetFramingErrorHandler@interruptHandler,w
  7116  0712  00EB               	movwf	_EUSART1_FramingErrorHandler^(0+128)
  7117  0713                     l250:	
  7118  0713  0008               	return
  7119  0714                     __end_of_EUSART1_SetFramingErrorHandler:	
  7120                           
  7121                           	psect	text25
  7122  0714                     __ptext25:	
  7123 ;; *************** function _EUSART1_SetErrorHandler *****************
  7124 ;; Defined at:
  7125 ;;		line 174 in file "mcc_generated_files/eusart1.c"
  7126 ;; Parameters:    Size  Location     Type
  7127 ;;  interruptHan    2    0[COMMON] PTR FTN()void 
  7128 ;;		 -> EUSART1_DefaultErrorHandler(1), 
  7129 ;; Auto vars:     Size  Location     Type
  7130 ;;		None
  7131 ;; Return value:  Size  Location     Type
  7132 ;;                  1    wreg      void 
  7133 ;; Registers used:
  7134 ;;		wreg
  7135 ;; Tracked objects:
  7136 ;;		On entry : 0/0
  7137 ;;		On exit  : 0/0
  7138 ;;		Unchanged: 0/0
  7139 ;; Data sizes:     COMMON   BANK0   BANK1   BANK2   BANK3   BANK4   BANK5   BANK6   BANK7   BANK8   BANK9  BANK10  BANK1
      +1  BANK12  BANK13  BANK14  BANK15  BANK16  BANK17  BANK18  BANK19  BANK20  BANK21  BANK22  BANK23  BANK24  BANK25
  7140 ;;      Params:         2       0       0       0       0       0       0       0       0       0       0       0       
      +0       0       0       0       0       0       0       0       0       0       0       0       0       0       0
  7141 ;;      Locals:         0       0       0       0       0       0       0       0       0       0       0       0       
      +0       0       0       0       0       0       0       0       0       0       0       0       0       0       0
  7142 ;;      Temps:          0       0       0       0       0       0       0       0       0       0       0       0       
      +0       0       0       0       0       0       0       0       0       0       0       0       0       0       0
  7143 ;;      Totals:         2       0       0       0       0       0       0       0       0       0       0       0       
      +0       0       0       0       0       0       0       0       0       0       0       0       0       0       0
  7144 ;;Total ram usage:        2 bytes
  7145 ;; Hardware stack levels used:    1
  7146 ;; Hardware stack levels required when called:    3
  7147 ;; This function calls:
  7148 ;;		Nothing
  7149 ;; This function is called by:
  7150 ;;		_EUSART1_Initialize
  7151 ;; This function uses a non-reentrant model
  7152 ;;
  7153                           
  7154                           
  7155                           ;psect for function _EUSART1_SetErrorHandler
  7156  0714                     _EUSART1_SetErrorHandler:	
  7157  0714                     l1704:	
  7158                           ;incstack = 0
  7159                           ; Regs used in _EUSART1_SetErrorHandler: [wreg]
  7160                           
  7161                           
  7162                           ;mcc_generated_files/eusart1.c: 175:     EUSART1_ErrorHandler = interruptHandler;
  7163  0714  0871               	movf	EUSART1_SetErrorHandler@interruptHandler+1,w
  7164  0715  0141               	movlb	1	; select bank1
  7165  0716  00E8               	movwf	(_EUSART1_ErrorHandler+1)^(0+128)
  7166  0717  0870               	movf	EUSART1_SetErrorHandler@interruptHandler,w
  7167  0718  00E7               	movwf	_EUSART1_ErrorHandler^(0+128)
  7168  0719                     l256:	
  7169  0719  0008               	return
  7170  071A                     __end_of_EUSART1_SetErrorHandler:	
  7171                           
  7172                           	psect	intentry
  7173  0004                     __pintentry:	
  7174 ;; *************** function _INTERRUPT_InterruptManager *****************
  7175 ;; Defined at:
  7176 ;;		line 52 in file "mcc_generated_files/interrupt_manager.c"
  7177 ;; Parameters:    Size  Location     Type
  7178 ;;		None
  7179 ;; Auto vars:     Size  Location     Type
  7180 ;;		None
  7181 ;; Return value:  Size  Location     Type
  7182 ;;                  1    wreg      void 
  7183 ;; Registers used:
  7184 ;;		wreg, status,2, status,0, pclath, cstack
  7185 ;; Tracked objects:
  7186 ;;		On entry : 0/0
  7187 ;;		On exit  : 0/0
  7188 ;;		Unchanged: 0/0
  7189 ;; Data sizes:     COMMON   BANK0   BANK1   BANK2   BANK3   BANK4   BANK5   BANK6   BANK7   BANK8   BANK9  BANK10  BANK1
      +1  BANK12  BANK13  BANK14  BANK15  BANK16  BANK17  BANK18  BANK19  BANK20  BANK21  BANK22  BANK23  BANK24  BANK25
  7190 ;;      Params:         0       0       0       0       0       0       0       0       0       0       0       0       
      +0       0       0       0       0       0       0       0       0       0       0       0       0       0       0
  7191 ;;      Locals:         0       0       0       0       0       0       0       0       0       0       0       0       
      +0       0       0       0       0       0       0       0       0       0       0       0       0       0       0
  7192 ;;      Temps:          0       0       0       0       0       0       0       0       0       0       0       0       
      +0       0       0       0       0       0       0       0       0       0       0       0       0       0       0
  7193 ;;      Totals:         0       0       0       0       0       0       0       0       0       0       0       0       
      +0       0       0       0       0       0       0       0       0       0       0       0       0       0       0
  7194 ;;Total ram usage:        0 bytes
  7195 ;; Hardware stack levels used:    1
  7196 ;; Hardware stack levels required when called:    2
  7197 ;; This function calls:
  7198 ;;		_TMR0_ISR
  7199 ;; This function is called by:
  7200 ;;		Interrupt level 1
  7201 ;; This function uses a non-reentrant model
  7202 ;;
  7203                           
  7204  0004                     _INTERRUPT_InterruptManager:	
  7205                           
  7206                           ;incstack = 0
  7207  0004  147E               	bsf	int$flags,0	;set compiler interrupt flag (level 1)
  7208                           
  7209                           ; Regs used in _INTERRUPT_InterruptManager: [wreg+status,2+status,0+pclath+cstack]
  7210  0005  3180               	pagesel	$
  7211  0006                     i1l1838:	
  7212                           
  7213                           ;mcc_generated_files/interrupt_manager.c: 55:     if(PIE0bits.TMR0IE == 1 && PIR0bits.TM
      +                          R0IF == 1)
  7214  0006  014E               	movlb	14	; select bank14
  7215  0007  1E96               	btfss	22,5	;volatile
  7216  0008  280A               	goto	u126_21
  7217  0009  280B               	goto	u126_20
  7218  000A                     u126_21:	
  7219  000A  2812               	goto	i1l13
  7220  000B                     u126_20:	
  7221  000B                     i1l1840:	
  7222  000B  1E8C               	btfss	12,5	;volatile
  7223  000C  280E               	goto	u127_21
  7224  000D  280F               	goto	u127_20
  7225  000E                     u127_21:	
  7226  000E  2812               	goto	i1l13
  7227  000F                     u127_20:	
  7228  000F                     i1l1842:	
  7229                           
  7230                           ;mcc_generated_files/interrupt_manager.c: 56:     {;mcc_generated_files/interrupt_manage
      +                          r.c: 57:         TMR0_ISR();
  7231  000F  3186  26B6  3180   	fcall	_TMR0_ISR
  7232  0012                     i1l13:	
  7233                           ;mcc_generated_files/interrupt_manager.c: 58:     }
  7234                           
  7235  0012  107E               	bcf	int$flags,0	;clear compiler interrupt flag (level 1)
  7236  0013  0009               	retfie
  7237  0014                     __end_of_INTERRUPT_InterruptManager:	
  7238                           
  7239                           	psect	text27
  7240  06B6                     __ptext27:	
  7241 ;; *************** function _TMR0_ISR *****************
  7242 ;; Defined at:
  7243 ;;		line 121 in file "mcc_generated_files/tmr0.c"
  7244 ;; Parameters:    Size  Location     Type
  7245 ;;		None
  7246 ;; Auto vars:     Size  Location     Type
  7247 ;;		None
  7248 ;; Return value:  Size  Location     Type
  7249 ;;                  1    wreg      void 
  7250 ;; Registers used:
  7251 ;;		wreg, status,2, status,0, pclath, cstack
  7252 ;; Tracked objects:
  7253 ;;		On entry : 0/0
  7254 ;;		On exit  : 0/0
  7255 ;;		Unchanged: 0/0
  7256 ;; Data sizes:     COMMON   BANK0   BANK1   BANK2   BANK3   BANK4   BANK5   BANK6   BANK7   BANK8   BANK9  BANK10  BANK1
      +1  BANK12  BANK13  BANK14  BANK15  BANK16  BANK17  BANK18  BANK19  BANK20  BANK21  BANK22  BANK23  BANK24  BANK25
  7257 ;;      Params:         0       0       0       0       0       0       0       0       0       0       0       0       
      +0       0       0       0       0       0       0       0       0       0       0       0       0       0       0
  7258 ;;      Locals:         0       0       0       0       0       0       0       0       0       0       0       0       
      +0       0       0       0       0       0       0       0       0       0       0       0       0       0       0
  7259 ;;      Temps:          0       0       0       0       0       0       0       0       0       0       0       0       
      +0       0       0       0       0       0       0       0       0       0       0       0       0       0       0
  7260 ;;      Totals:         0       0       0       0       0       0       0       0       0       0       0       0       
      +0       0       0       0       0       0       0       0       0       0       0       0       0       0       0
  7261 ;;Total ram usage:        0 bytes
  7262 ;; Hardware stack levels used:    1
  7263 ;; Hardware stack levels required when called:    1
  7264 ;; This function calls:
  7265 ;;		Absolute function
  7266 ;;		_TMR0_DefaultInterruptHandler
  7267 ;;		_timer_callback
  7268 ;; This function is called by:
  7269 ;;		_INTERRUPT_InterruptManager
  7270 ;; This function uses a non-reentrant model
  7271 ;;
  7272                           
  7273                           
  7274                           ;psect for function _TMR0_ISR
  7275  06B6                     _TMR0_ISR:	
  7276  06B6                     i1l1800:	
  7277                           ;incstack = 0
  7278                           ; Regs used in _TMR0_ISR: [wreg+status,2+status,0+pclath+cstack]
  7279                           
  7280                           
  7281                           ;mcc_generated_files/tmr0.c: 124:     PIR0bits.TMR0IF = 0;
  7282  06B6  014E               	movlb	14	; select bank14
  7283  06B7  128C               	bcf	12,5	;volatile
  7284  06B8                     i1l1802:	
  7285                           
  7286                           ;mcc_generated_files/tmr0.c: 125:     if(TMR0_InterruptHandler)
  7287  06B8  0141               	movlb	1	; select bank1
  7288  06B9  086D               	movf	_TMR0_InterruptHandler^(0+128),w
  7289  06BA  046E               	iorwf	(_TMR0_InterruptHandler+1)^(0+128),w
  7290  06BB  1903               	btfsc	3,2
  7291  06BC  2EBE               	goto	u122_21
  7292  06BD  2EBF               	goto	u122_20
  7293  06BE                     u122_21:	
  7294  06BE  2EC4               	goto	i1l156
  7295  06BF                     u122_20:	
  7296  06BF                     i1l1804:	
  7297                           
  7298                           ;mcc_generated_files/tmr0.c: 126:     {;mcc_generated_files/tmr0.c: 127:         TMR0_In
      +                          terruptHandler();
  7299  06BF  086E               	movf	(_TMR0_InterruptHandler+1)^(0+128),w
  7300  06C0  008A               	movwf	10
  7301  06C1  086D               	movf	_TMR0_InterruptHandler^(0+128),w
  7302  06C2  000A               	callw
  7303  06C3  3186               	pagesel	$
  7304  06C4                     i1l156:	
  7305  06C4  0008               	return
  7306  06C5                     __end_of_TMR0_ISR:	
  7307                           
  7308                           	psect	text28
  7309  071A                     __ptext28:	
  7310 ;; *************** function _TMR0_DefaultInterruptHandler *****************
  7311 ;; Defined at:
  7312 ;;		line 138 in file "mcc_generated_files/tmr0.c"
  7313 ;; Parameters:    Size  Location     Type
  7314 ;;		None
  7315 ;; Auto vars:     Size  Location     Type
  7316 ;;		None
  7317 ;; Return value:  Size  Location     Type
  7318 ;;                  1    wreg      void 
  7319 ;; Registers used:
  7320 ;;		None
  7321 ;; Tracked objects:
  7322 ;;		On entry : 0/0
  7323 ;;		On exit  : 0/0
  7324 ;;		Unchanged: 0/0
  7325 ;; Data sizes:     COMMON   BANK0   BANK1   BANK2   BANK3   BANK4   BANK5   BANK6   BANK7   BANK8   BANK9  BANK10  BANK1
      +1  BANK12  BANK13  BANK14  BANK15  BANK16  BANK17  BANK18  BANK19  BANK20  BANK21  BANK22  BANK23  BANK24  BANK25
  7326 ;;      Params:         0       0       0       0       0       0       0       0       0       0       0       0       
      +0       0       0       0       0       0       0       0       0       0       0       0       0       0       0
  7327 ;;      Locals:         0       0       0       0       0       0       0       0       0       0       0       0       
      +0       0       0       0       0       0       0       0       0       0       0       0       0       0       0
  7328 ;;      Temps:          0       0       0       0       0       0       0       0       0       0       0       0       
      +0       0       0       0       0       0       0       0       0       0       0       0       0       0       0
  7329 ;;      Totals:         0       0       0       0       0       0       0       0       0       0       0       0       
      +0       0       0       0       0       0       0       0       0       0       0       0       0       0       0
  7330 ;;Total ram usage:        0 bytes
  7331 ;; Hardware stack levels used:    1
  7332 ;; This function calls:
  7333 ;;		Nothing
  7334 ;; This function is called by:
  7335 ;;		_TMR0_Initialize
  7336 ;;		_TMR0_ISR
  7337 ;; This function uses a non-reentrant model
  7338 ;;
  7339                           
  7340                           
  7341                           ;psect for function _TMR0_DefaultInterruptHandler
  7342  071A                     _TMR0_DefaultInterruptHandler:	
  7343  071A                     i1l162:	
  7344                           ;incstack = 0
  7345                           ; Regs used in _TMR0_DefaultInterruptHandler: []
  7346                           
  7347  071A  0008               	return
  7348  071B                     __end_of_TMR0_DefaultInterruptHandler:	
  7349                           
  7350                           	psect	text29
  7351  06E4                     __ptext29:	
  7352 ;; *************** function _timer_callback *****************
  7353 ;; Defined at:
  7354 ;;		line 51 in file "main.c"
  7355 ;; Parameters:    Size  Location     Type
  7356 ;;		None
  7357 ;; Auto vars:     Size  Location     Type
  7358 ;;		None
  7359 ;; Return value:  Size  Location     Type
  7360 ;;                  1    wreg      void 
  7361 ;; Registers used:
  7362 ;;		wreg
  7363 ;; Tracked objects:
  7364 ;;		On entry : 0/0
  7365 ;;		On exit  : 0/0
  7366 ;;		Unchanged: 0/0
  7367 ;; Data sizes:     COMMON   BANK0   BANK1   BANK2   BANK3   BANK4   BANK5   BANK6   BANK7   BANK8   BANK9  BANK10  BANK1
      +1  BANK12  BANK13  BANK14  BANK15  BANK16  BANK17  BANK18  BANK19  BANK20  BANK21  BANK22  BANK23  BANK24  BANK25
  7368 ;;      Params:         0       0       0       0       0       0       0       0       0       0       0       0       
      +0       0       0       0       0       0       0       0       0       0       0       0       0       0       0
  7369 ;;      Locals:         0       0       0       0       0       0       0       0       0       0       0       0       
      +0       0       0       0       0       0       0       0       0       0       0       0       0       0       0
  7370 ;;      Temps:          0       0       0       0       0       0       0       0       0       0       0       0       
      +0       0       0       0       0       0       0       0       0       0       0       0       0       0       0
  7371 ;;      Totals:         0       0       0       0       0       0       0       0       0       0       0       0       
      +0       0       0       0       0       0       0       0       0       0       0       0       0       0       0
  7372 ;;Total ram usage:        0 bytes
  7373 ;; Hardware stack levels used:    1
  7374 ;; This function calls:
  7375 ;;		Nothing
  7376 ;; This function is called by:
  7377 ;;		_main
  7378 ;;		_TMR0_ISR
  7379 ;; This function uses a non-reentrant model
  7380 ;;
  7381                           
  7382                           
  7383                           ;psect for function _timer_callback
  7384  06E4                     _timer_callback:	
  7385  06E4                     i1l1788:	
  7386                           ;incstack = 0
  7387                           ; Regs used in _timer_callback: [wreg]
  7388                           
  7389                           
  7390                           ;main.c: 52:     ticker++;
  7391  06E4  3001               	movlw	1
  7392  06E5  0141               	movlb	1	; select bank1
  7393  06E6  07A4               	addwf	_ticker^(0+128),f	;volatile
  7394  06E7  3000               	movlw	0
  7395  06E8  3DA5               	addwfc	(_ticker+1)^(0+128),f	;volatile
  7396  06E9  3000               	movlw	0
  7397  06EA  3DA6               	addwfc	(_ticker+2)^(0+128),f	;volatile
  7398  06EB  3000               	movlw	0
  7399  06EC  3DA7               	addwfc	(_ticker+3)^(0+128),f	;volatile
  7400  06ED                     i1l273:	
  7401  06ED  0008               	return
  7402  06EE                     __end_of_timer_callback:	
  7403  007E                     btemp	set	126	;btemp
  7404  007E                     int$flags	set	126
  7405  007E                     wtemp0	set	126


Data Sizes:
    Strings     17
    Constant    0
    Data        0
    BSS         59
    Persistent  42
    Stack       0

Auto Spaces:
    Space          Size  Autos    Used
    COMMON           14     14      14
    BANK0            80     78      80
    BANK1            80     12      79
    BANK2            80      0       0
    BANK3            80      0       0
    BANK4            80      0       0
    BANK5            80      0       0
    BANK6            80      0       0
    BANK7            80      0       0
    BANK8            80      0       0
    BANK9            80      0       0
    BANK10           80      0       0
    BANK11           80      0       0
    BANK12           80      0       0
    BANK13           80      0       0
    BANK14           80      0       0
    BANK15           80      0       0
    BANK16           80      0       0
    BANK17           80      0       0
    BANK18           80      0       0
    BANK19           80      0       0
    BANK20           80      0       0
    BANK21           80      0       0
    BANK22           80      0       0
    BANK23           80      0       0
    BANK24           80      0       0
    BANK25           32      0       0

Pointer List with Targets:

    strlen@s	PTR const unsigned char  size(1) Largest target is 32
		 -> dbuf(BANK1[32]), 

    strlen@a	PTR const unsigned char  size(1) Largest target is 32
		 -> dbuf(BANK1[32]), 

    printf@fmt	PTR const unsigned char  size(2) Largest target is 17
		 -> STR_1(CODE[17]), 

    printf@ap	PTR void [1] size(1) Largest target is 2
		 -> ?_printf(BANK0[2]), 

    fputs@s	PTR const unsigned char  size(1) Largest target is 32
		 -> dbuf(BANK1[32]), 

    fputs@fp	PTR struct _IO_FILE size(1) Largest target is 0
		 -> NULL(NULL[0]), 

    S986_IO_FILE$buffer	PTR unsigned char  size(1) Largest target is 0

    fputc@fp.buffer	PTR unsigned char  size(1) Largest target is 0

    fputc@fp	PTR struct _IO_FILE size(1) Largest target is 0
		 -> NULL(NULL[0]), 

    vfprintf@ap	PTR PTR void  size(1) Largest target is 1
		 -> printf@ap(BANK0[1]), 

    vfprintf@fp	PTR struct _IO_FILE size(1) Largest target is 0
		 -> NULL(NULL[0]), 

    vfprintf@fmt	PTR const unsigned char  size(2) Largest target is 17
		 -> STR_1(CODE[17]), 

    vfprintf@cfmt	PTR unsigned char  size(2) Largest target is 17
		 -> STR_1(CODE[17]), 

    vfpfcnvrt@fp	PTR struct _IO_FILE size(1) Largest target is 0
		 -> NULL(NULL[0]), 

    vfpfcnvrt@ap	PTR PTR void  size(1) Largest target is 1
		 -> printf@ap(BANK0[1]), 

    vfpfcnvrt@fmt	PTR PTR unsigned char  size(1) Largest target is 2
		 -> vfprintf@cfmt(BANK0[2]), 

    dtoa@fp	PTR struct _IO_FILE size(1) Largest target is 0
		 -> NULL(NULL[0]), 

    pad@fp	PTR struct _IO_FILE size(1) Largest target is 0
		 -> NULL(NULL[0]), 

    pad@buf	PTR unsigned char  size(1) Largest target is 32
		 -> dbuf(BANK1[32]), 

    EUSART1_SetErrorHandler@interruptHandler	PTR FTN()void  size(2) Largest target is 1
		 -> EUSART1_DefaultErrorHandler(), 

    EUSART1_ErrorHandler	PTR FTN()void  size(2) Largest target is 1
		 -> EUSART1_DefaultErrorHandler(), Absolute function(), 

    EUSART1_SetOverrunErrorHandler@interruptHandler	PTR FTN()void  size(2) Largest target is 1
		 -> EUSART1_DefaultOverrunErrorHandler(), 

    EUSART1_OverrunErrorHandler	PTR FTN()void  size(2) Largest target is 1
		 -> EUSART1_DefaultOverrunErrorHandler(), Absolute function(), 

    EUSART1_SetFramingErrorHandler@interruptHandler	PTR FTN()void  size(2) Largest target is 1
		 -> EUSART1_DefaultFramingErrorHandler(), 

    EUSART1_FramingErrorHandler	PTR FTN()void  size(2) Largest target is 1
		 -> EUSART1_DefaultFramingErrorHandler(), Absolute function(), 

    TMR0_SetInterruptHandler@InterruptHandler	PTR FTN()void  size(2) Largest target is 1
		 -> timer_callback(), TMR0_DefaultInterruptHandler(), 

    TMR0_InterruptHandler	PTR FTN()void  size(2) Largest target is 1
		 -> timer_callback(), Absolute function(), TMR0_DefaultInterruptHandler(), 


Critical Paths under _main in COMMON

    _pad->_fputs
    _fputs->_fputc
    _fputc->_putch
    _putch->_EUSART1_Write
    _abs->___aomod
    _TMR0_Initialize->_TMR0_SetInterruptHandler
    _EUSART1_Initialize->_EUSART1_SetErrorHandler
    _EUSART1_Initialize->_EUSART1_SetFramingErrorHandler
    _EUSART1_Initialize->_EUSART1_SetOverrunErrorHandler

Critical Paths under _INTERRUPT_InterruptManager in COMMON

    None.

Critical Paths under _main in BANK0

    _updateState->_printf
    _printf->_vfprintf
    _vfprintf->_vfpfcnvrt
    _vfpfcnvrt->_dtoa
    _dtoa->___aodiv
    _dtoa->___aomod
    _pad->_fputs
    _abs->___aomod

Critical Paths under _INTERRUPT_InterruptManager in BANK0

    None.

Critical Paths under _main in BANK1

    None.

Critical Paths under _INTERRUPT_InterruptManager in BANK1

    None.

Critical Paths under _main in BANK2

    None.

Critical Paths under _INTERRUPT_InterruptManager in BANK2

    None.

Critical Paths under _main in BANK3

    None.

Critical Paths under _INTERRUPT_InterruptManager in BANK3

    None.

Critical Paths under _main in BANK4

    None.

Critical Paths under _INTERRUPT_InterruptManager in BANK4

    None.

Critical Paths under _main in BANK5

    None.

Critical Paths under _INTERRUPT_InterruptManager in BANK5

    None.

Critical Paths under _main in BANK6

    None.

Critical Paths under _INTERRUPT_InterruptManager in BANK6

    None.

Critical Paths under _main in BANK7

    None.

Critical Paths under _INTERRUPT_InterruptManager in BANK7

    None.

Critical Paths under _main in BANK8

    None.

Critical Paths under _INTERRUPT_InterruptManager in BANK8

    None.

Critical Paths under _main in BANK9

    None.

Critical Paths under _INTERRUPT_InterruptManager in BANK9

    None.

Critical Paths under _main in BANK10

    None.

Critical Paths under _INTERRUPT_InterruptManager in BANK10

    None.

Critical Paths under _main in BANK11

    None.

Critical Paths under _INTERRUPT_InterruptManager in BANK11

    None.

Critical Paths under _main in BANK12

    None.

Critical Paths under _INTERRUPT_InterruptManager in BANK12

    None.

Critical Paths under _main in BANK13

    None.

Critical Paths under _INTERRUPT_InterruptManager in BANK13

    None.

Critical Paths under _main in BANK14

    None.

Critical Paths under _INTERRUPT_InterruptManager in BANK14

    None.

Critical Paths under _main in BANK15

    None.

Critical Paths under _INTERRUPT_InterruptManager in BANK15

    None.

Critical Paths under _main in BANK16

    None.

Critical Paths under _INTERRUPT_InterruptManager in BANK16

    None.

Critical Paths under _main in BANK17

    None.

Critical Paths under _INTERRUPT_InterruptManager in BANK17

    None.

Critical Paths under _main in BANK18

    None.

Critical Paths under _INTERRUPT_InterruptManager in BANK18

    None.

Critical Paths under _main in BANK19

    None.

Critical Paths under _INTERRUPT_InterruptManager in BANK19

    None.

Critical Paths under _main in BANK20

    None.

Critical Paths under _INTERRUPT_InterruptManager in BANK20

    None.

Critical Paths under _main in BANK21

    None.

Critical Paths under _INTERRUPT_InterruptManager in BANK21

    None.

Critical Paths under _main in BANK22

    None.

Critical Paths under _INTERRUPT_InterruptManager in BANK22

    None.

Critical Paths under _main in BANK23

    None.

Critical Paths under _INTERRUPT_InterruptManager in BANK23

    None.

Critical Paths under _main in BANK24

    None.

Critical Paths under _INTERRUPT_InterruptManager in BANK24

    None.

Critical Paths under _main in BANK25

    None.

Critical Paths under _INTERRUPT_InterruptManager in BANK25

    None.

Call Graph Tables:

 ---------------------------------------------------------------------------------
 (Depth) Function   	        Calls       Base Space   Used Autos Params    Refs
 ---------------------------------------------------------------------------------
 (0) _main                                                12    12      0    6623
                                              0 BANK1     12    12      0
                  _SYSTEM_Initialize
           _TMR0_SetInterruptHandler
                             _millis
                        _updateState
 ---------------------------------------------------------------------------------
 (1) _updateState                                          0     0      0    5936
                             _millis
                             _printf
 ---------------------------------------------------------------------------------
 (2) _printf                                               8     4      4    5936
                                             70 BANK0      8     4      4
                           _vfprintf
 ---------------------------------------------------------------------------------
 (3) _vfprintf                                             8     5      3    5806
                                             62 BANK0      8     5      3
                          _vfpfcnvrt
 ---------------------------------------------------------------------------------
 (4) _vfpfcnvrt                                           40    38      2    5478
                                             46 BANK0     16    14      2
                               _dtoa
                              _fputc
 ---------------------------------------------------------------------------------
 (5) _dtoa                                                30    22      8    4133
                                             16 BANK0     30    22      8
                            ___aodiv
                            ___aomod
                                _abs
                                _pad
 ---------------------------------------------------------------------------------
 (6) _pad                                                  9     6      3    2510
                                              4 BANK0      9     6      3
                              _fputc
                              _fputs
                             _strlen
 ---------------------------------------------------------------------------------
 (7) _strlen                                               5     3      2     123
                                              0 COMMON     5     3      2
 ---------------------------------------------------------------------------------
 (7) _fputs                                                8     7      1    1127
                                             10 COMMON     4     3      1
                                              0 BANK0      4     4      0
                              _fputc
 ---------------------------------------------------------------------------------
 (5) _fputc                                                8     5      3     812
                                              2 COMMON     8     5      3
                              _putch
 ---------------------------------------------------------------------------------
 (6) _putch                                                1     1      0      44
                                              1 COMMON     1     1      0
                      _EUSART1_Write
 ---------------------------------------------------------------------------------
 (7) _EUSART1_Write                                        1     1      0      22
                                              0 COMMON     1     1      0
 ---------------------------------------------------------------------------------
 (6) _abs                                                  4     2      2     142
                                              3 COMMON     4     2      2
                            ___aomod (ARG)
 ---------------------------------------------------------------------------------
 (6) ___aomod                                             19     3     16     448
                                              0 COMMON     3     3      0
                                              0 BANK0     16     0     16
 ---------------------------------------------------------------------------------
 (6) ___aodiv                                             27    11     16     452
                                              0 COMMON    11    11      0
                                              0 BANK0     16     0     16
 ---------------------------------------------------------------------------------
 (2) _millis                                               4     0      4       0
                                              0 COMMON     4     0      4
 ---------------------------------------------------------------------------------
 (1) _SYSTEM_Initialize                                    0     0      0     468
                 _EUSART1_Initialize
              _OSCILLATOR_Initialize
             _PIN_MANAGER_Initialize
                     _PMD_Initialize
                    _TMR0_Initialize
 ---------------------------------------------------------------------------------
 (2) _TMR0_Initialize                                      0     0      0     174
           _TMR0_SetInterruptHandler
 ---------------------------------------------------------------------------------
 (1) _TMR0_SetInterruptHandler                             2     0      2     174
                                              0 COMMON     2     0      2
 ---------------------------------------------------------------------------------
 (2) _PMD_Initialize                                       0     0      0       0
 ---------------------------------------------------------------------------------
 (2) _PIN_MANAGER_Initialize                               0     0      0       0
 ---------------------------------------------------------------------------------
 (2) _OSCILLATOR_Initialize                                0     0      0       0
 ---------------------------------------------------------------------------------
 (2) _EUSART1_Initialize                                   0     0      0     294
            _EUSART1_SetErrorHandler
     _EUSART1_SetFramingErrorHandler
     _EUSART1_SetOverrunErrorHandler
 ---------------------------------------------------------------------------------
 (3) _EUSART1_SetOverrunErrorHandler                       2     0      2      98
                                              0 COMMON     2     0      2
 ---------------------------------------------------------------------------------
 (3) _EUSART1_SetFramingErrorHandler                       2     0      2      98
                                              0 COMMON     2     0      2
 ---------------------------------------------------------------------------------
 (3) _EUSART1_SetErrorHandler                              2     0      2      98
                                              0 COMMON     2     0      2
 ---------------------------------------------------------------------------------
 Estimated maximum stack depth 7
 ---------------------------------------------------------------------------------
 (Depth) Function   	        Calls       Base Space   Used Autos Params    Refs
 ---------------------------------------------------------------------------------
 (11) _INTERRUPT_InterruptManager                          0     0      0       0
                           _TMR0_ISR
 ---------------------------------------------------------------------------------
 (12) _TMR0_ISR                                            0     0      0       0
                   Absolute function *
       _TMR0_DefaultInterruptHandler *
                     _timer_callback *
 ---------------------------------------------------------------------------------
 (13) _timer_callback                                      0     0      0       0
 ---------------------------------------------------------------------------------
 (13) _TMR0_DefaultInterruptHandler                        0     0      0       0
 ---------------------------------------------------------------------------------
 (13) Absolute function(Fake)                              0     0      0       0
 ---------------------------------------------------------------------------------
 Estimated maximum stack depth 13
 ---------------------------------------------------------------------------------

 Call Graph Graphs:

 _main (ROOT)
   _SYSTEM_Initialize
     _EUSART1_Initialize
       _EUSART1_SetErrorHandler
       _EUSART1_SetFramingErrorHandler
       _EUSART1_SetOverrunErrorHandler
     _OSCILLATOR_Initialize
     _PIN_MANAGER_Initialize
     _PMD_Initialize
     _TMR0_Initialize
       _TMR0_SetInterruptHandler
   _TMR0_SetInterruptHandler
   _millis
   _updateState
     _millis
     _printf
       _vfprintf
         _vfpfcnvrt
           _dtoa
             ___aodiv
             ___aomod
             _abs
               ___aomod (ARG)
             _pad
               _fputc
                 _putch
                   _EUSART1_Write
               _fputs
                 _fputc
                   _putch
                     _EUSART1_Write
               _strlen
           _fputc
             _putch
               _EUSART1_Write

 _INTERRUPT_InterruptManager (ROOT)
   _TMR0_ISR
     Absolute function(Fake) *
     _TMR0_DefaultInterruptHandler *
     _timer_callback *

 Address spaces:
Name               Size   Autos  Total    Cost      Usage
BIGRAM             7F0      0       0       0        0.0%
EEDATA             100      0       0       0        0.0%
NULL                 0      0       0       0        0.0%
CODE                 0      0       0       0        0.0%
BITCOMMON            E      0       0       1        0.0%
BITSFR0              0      0       0       1        0.0%
SFR0                 0      0       0       1        0.0%
COMMON               E      E       E       2      100.0%
BITSFR1              0      0       0       2        0.0%
SFR1                 0      0       0       2        0.0%
BITSFR2              0      0       0       3        0.0%
SFR2                 0      0       0       3        0.0%
STACK                0      0       0       3        0.0%
BITBANK0            50      0       0       4        0.0%
BITSFR3              0      0       0       4        0.0%
SFR3                 0      0       0       4        0.0%
BANK0               50     4E      50       5      100.0%
BITSFR4              0      0       0       5        0.0%
SFR4                 0      0       0       5        0.0%
BITSFR5              0      0       0       6        0.0%
SFR5                 0      0       0       6        0.0%
ABS                  0      0      AD       6        0.0%
BITBANK1            50      0       0       7        0.0%
BITSFR6              0      0       0       7        0.0%
SFR6                 0      0       0       7        0.0%
BANK1               50      C      4F       8       98.8%
BITSFR7              0      0       0       8        0.0%
SFR7                 0      0       0       8        0.0%
BITBANK2            50      0       0       9        0.0%
BITSFR8              0      0       0       9        0.0%
SFR8                 0      0       0       9        0.0%
BANK2               50      0       0      10        0.0%
BITSFR9              0      0       0      10        0.0%
SFR9                 0      0       0      10        0.0%
BITBANK3            50      0       0      11        0.0%
BITSFR10             0      0       0      11        0.0%
SFR10                0      0       0      11        0.0%
BANK3               50      0       0      12        0.0%
BITSFR11             0      0       0      12        0.0%
SFR11                0      0       0      12        0.0%
BITBANK4            50      0       0      13        0.0%
BITSFR12             0      0       0      13        0.0%
SFR12                0      0       0      13        0.0%
BANK4               50      0       0      14        0.0%
BITSFR13             0      0       0      14        0.0%
SFR13                0      0       0      14        0.0%
BITBANK5            50      0       0      15        0.0%
BITSFR14             0      0       0      15        0.0%
SFR14                0      0       0      15        0.0%
BANK5               50      0       0      16        0.0%
BITSFR15             0      0       0      16        0.0%
SFR15                0      0       0      16        0.0%
BITBANK6            50      0       0      17        0.0%
BITSFR16             0      0       0      17        0.0%
SFR16                0      0       0      17        0.0%
BANK6               50      0       0      18        0.0%
BITSFR17             0      0       0      18        0.0%
SFR17                0      0       0      18        0.0%
BITBANK7            50      0       0      19        0.0%
BITSFR18             0      0       0      19        0.0%
SFR18                0      0       0      19        0.0%
BANK7               50      0       0      20        0.0%
BITSFR19             0      0       0      20        0.0%
SFR19                0      0       0      20        0.0%
BITBANK8            50      0       0      21        0.0%
BITSFR20             0      0       0      21        0.0%
SFR20                0      0       0      21        0.0%
BANK8               50      0       0      22        0.0%
BITSFR21             0      0       0      22        0.0%
SFR21                0      0       0      22        0.0%
BITBANK9            50      0       0      23        0.0%
BITSFR22             0      0       0      23        0.0%
SFR22                0      0       0      23        0.0%
BANK9               50      0       0      24        0.0%
BITSFR23             0      0       0      24        0.0%
SFR23                0      0       0      24        0.0%
BITBANK10           50      0       0      25        0.0%
BITSFR24             0      0       0      25        0.0%
SFR24                0      0       0      25        0.0%
BANK10              50      0       0      26        0.0%
BITSFR25             0      0       0      26        0.0%
SFR25                0      0       0      26        0.0%
BITBANK11           50      0       0      27        0.0%
BITSFR26             0      0       0      27        0.0%
SFR26                0      0       0      27        0.0%
BANK11              50      0       0      28        0.0%
BITSFR27             0      0       0      28        0.0%
SFR27                0      0       0      28        0.0%
BITBANK12           50      0       0      29        0.0%
BITSFR28             0      0       0      29        0.0%
SFR28                0      0       0      29        0.0%
BANK12              50      0       0      30        0.0%
BITSFR29             0      0       0      30        0.0%
SFR29                0      0       0      30        0.0%
BITBANK13           50      0       0      31        0.0%
BITSFR30             0      0       0      31        0.0%
SFR30                0      0       0      31        0.0%
BANK13              50      0       0      32        0.0%
BITSFR31             0      0       0      32        0.0%
SFR31                0      0       0      32        0.0%
BITBANK14           50      0       0      33        0.0%
BITSFR32             0      0       0      33        0.0%
SFR32                0      0       0      33        0.0%
BANK14              50      0       0      34        0.0%
BITSFR33             0      0       0      34        0.0%
SFR33                0      0       0      34        0.0%
BITBANK15           50      0       0      35        0.0%
BITSFR34             0      0       0      35        0.0%
SFR34                0      0       0      35        0.0%
BANK15              50      0       0      36        0.0%
BITSFR35             0      0       0      36        0.0%
SFR35                0      0       0      36        0.0%
BITBANK16           50      0       0      37        0.0%
BITSFR36             0      0       0      37        0.0%
SFR36                0      0       0      37        0.0%
BANK16              50      0       0      38        0.0%
BITSFR37             0      0       0      38        0.0%
SFR37                0      0       0      38        0.0%
BITBANK17           50      0       0      39        0.0%
BITSFR38             0      0       0      39        0.0%
SFR38                0      0       0      39        0.0%
BANK17              50      0       0      40        0.0%
BITSFR39             0      0       0      40        0.0%
SFR39                0      0       0      40        0.0%
BITBANK18           50      0       0      41        0.0%
BITSFR40             0      0       0      41        0.0%
SFR40                0      0       0      41        0.0%
BANK18              50      0       0      42        0.0%
BITSFR41             0      0       0      42        0.0%
SFR41                0      0       0      42        0.0%
BITBANK19           50      0       0      43        0.0%
BITSFR42             0      0       0      43        0.0%
SFR42                0      0       0      43        0.0%
BANK19              50      0       0      44        0.0%
BITSFR43             0      0       0      44        0.0%
SFR43                0      0       0      44        0.0%
BITBANK20           50      0       0      45        0.0%
BITSFR44             0      0       0      45        0.0%
SFR44                0      0       0      45        0.0%
BANK20              50      0       0      46        0.0%
BITSFR45             0      0       0      46        0.0%
SFR45                0      0       0      46        0.0%
BITBANK21           50      0       0      47        0.0%
BITSFR46             0      0       0      47        0.0%
SFR46                0      0       0      47        0.0%
BANK21              50      0       0      48        0.0%
BITSFR47             0      0       0      48        0.0%
SFR47                0      0       0      48        0.0%
BITBANK22           50      0       0      49        0.0%
BITSFR48             0      0       0      49        0.0%
SFR48                0      0       0      49        0.0%
BANK22              50      0       0      50        0.0%
BITSFR49             0      0       0      50        0.0%
SFR49                0      0       0      50        0.0%
BITBANK23           50      0       0      51        0.0%
BITSFR50             0      0       0      51        0.0%
SFR50                0      0       0      51        0.0%
BANK23              50      0       0      52        0.0%
BITSFR51             0      0       0      52        0.0%
SFR51                0      0       0      52        0.0%
BITBANK24           50      0       0      53        0.0%
BITSFR52             0      0       0      53        0.0%
SFR52                0      0       0      53        0.0%
BANK24              50      0       0      54        0.0%
BITSFR53             0      0       0      54        0.0%
SFR53                0      0       0      54        0.0%
BITBANK25           20      0       0      55        0.0%
BITSFR54             0      0       0      55        0.0%
SFR54                0      0       0      55        0.0%
BANK25              20      0       0      56        0.0%
BITSFR55             0      0       0      56        0.0%
SFR55                0      0       0      56        0.0%
BITSFR56             0      0       0      57        0.0%
SFR56                0      0       0      57        0.0%
DATA                 0      0      AD      57        0.0%
BITSFR57             0      0       0      58        0.0%
SFR57                0      0       0      58        0.0%
BITSFR58             0      0       0      59        0.0%
SFR58                0      0       0      59        0.0%
BITSFR59             0      0       0      60        0.0%
SFR59                0      0       0      60        0.0%
BITSFR60             0      0       0      61        0.0%
SFR60                0      0       0      61        0.0%
BITSFR61             0      0       0      62        0.0%
SFR61                0      0       0      62        0.0%
BITSFR62             0      0       0      63        0.0%
SFR62                0      0       0      63        0.0%
BITSFR63             0      0       0      64        0.0%
SFR63                0      0       0      64        0.0%


Microchip Technology PIC Macro Assembler V2.10 build 88905656 
Symbol Table                                                                                   Mon Jun 22 16:53:48 2020

                                   __CFG_CP$OFF 0000                                              l52 06B5  
                                            l55 06CF                                              l58 06F5  
                                   __CFG_LVP$ON 0000                                             l111 05F1  
                                           l205 063B                                             l232 06D9  
                                           l137 0682                                             l250 0713  
                                           l253 070D                                             l229 06D1  
                                           l238 0701                                             l159 0707  
                                           l256 0719                                             l512 018E  
                                           l276 06E3                                             l630 027E  
                                           l526 0595                                             l631 028F  
                                           l519 0456                                             l295 05C4  
                                           l481 04EA                                             l490 0078  
                                           l643 0368                                             l644 0379  
                                           l484 050C                                             l485 0519  
                                           l486 0525                                             l494 0096  
                                           l495 00AC                                             l489 006E  
                                           l498 011B                                             l984 0655  
                                           l987 0655                                             l999 0564  
                                           u700 0530                                             u701 052F  
                                           u710 053F                                             u711 053E  
                                           u800 019A                                             u720 055C  
                                           u801 0199                                             u721 055B  
                                           u730 0619                                             u731 0618  
                                           u820 01C5                                             u740 0668  
                                           u821 01C4                                             u725 0558  
                                           u741 0667                                             u910 029B  
                                           u750 04D6                                             u911 029A  
                                           u751 04D5                                             u840 01EF  
                                           u680 06D6                                             u760 04E3  
                                           u681 06D5                                             u761 04E2  
                                           u850 01FF                                             u930 02C6  
                                           u690 052B                                             u770 050C  
                                           u851 01FE                                             u931 02C5  
                                           u691 052A                                             u771 050B  
                                           u860 0212                                             u780 0511  
                                           u861 0211                                             u781 0510  
                                           u870 023C                                             u950 02F2  
                                           u790 0649                                             u871 023B  
                                           u951 02F1                                             u791 0648  
                                           u775 0508                                             u880 025B  
                                           u960 0305                                             u881 025A  
                                           u961 0304                                             u890 0260  
                                           u970 0327                                             u891 025F  
                                           u875 0238                                             u971 0326  
                                           u795 0645                                             u980 0345  
                                           u981 0344                                             u990 034A  
                                           u991 0349                                             u975 0323  
                                           _abs 063C                                             _pad 04D0  
                       __size_of_PMD_Initialize 0008                                    __CFG_BORV$LO 0000  
                                           wreg 0009                               main@currentMillis 00E1  
                                 __CFG_BBEN$OFF 0000                                    _startPressed 00B4  
                                  __CFG_ZCD$OFF 0000                                            l1020 066E  
                                          l1014 0694                                            l1007 0619  
                                          ?_abs 0073                                            l1500 0668  
                                          l1510 04E3                                            l1520 0511  
                                          l1512 04E8                                            l1504 04D2  
                                          l1600 004A                                            l1530 0190  
                                          l1514 04ED                                            l1506 04D6  
                                          l1610 009E                                            l1602 0050  
                                          l1700 070E                                            l1540 01E8  
                                          l1532 019A                                            l1524 063C  
                                          l1516 04F9                                            l1508 04DE  
                                          l1620 00B8                                            l1612 00A4  
                                          l1604 0073                                            l1702 0708  
                                          l1550 020E                                            l1542 01F2  
                                          l1534 01BB                                            l1526 0649  
                                          l1470 06FD                                            l1518 04FE  
                                          l1630 0136                                            l1622 00E6  
                                          l1614 00A8                                            l1606 0088  
                                          l1710 056F                                            l1704 0714  
                                          l1720 05C5                                            l1560 024D  
                                          l1552 0212                                            l1544 01FF  
                                          l1536 01C5                                            l1528 018F  
                                          l1480 053F                                            l1472 0526  
                                          l1640 0161                                            l1632 0143  
                                          l1624 00EA                                            l1616 00B0  
                                          l1608 008E                                            l1712 0583  
                                          l1730 05D2                                            l1722 05C9  
                                          l1810 06AC                                            l1554 021A  
                                          l1546 0202                                            l1562 025B  
                                          l1538 01E4                                            l1570 029B  
                                          l1466 06D1                                            l1482 055C  
                                          l1474 052B                                            l1490 0605  
                                          l1642 0165                                            l1650 017C  
                                          l1634 0151                                            l1626 00EE  
                                          l1618 00B3                                            l1714 058D  
                                          l1706 0567                                            l1740 05E3  
                                          l1732 05D4                                            l1724 05CB  
                                          l1812 06AF                                            l1564 0260  
                                          l1556 023C                                            l1548 020A  
                                          l1580 02F5                                            l1572 02BC  
                                          l1468 06D6                                            l1476 0530  
                                          l1492 060A                                            l1644 016B  
                                          l1628 0129                                            l1636 0156  
                                          l1660 039B                                            l1708 056B  
                                          l1750 05EE                                            l1742 05E5  
                                          l1734 05DD                                            l1726 05CD  
                                          l1718 06EE                                            l1814 06B2  
                                          l1806 06A6                                            l1558 024C  
                                          l1590 0337                                            l1582 02FD  
                                          l1574 02C6                                            l1566 0290  
                                          l1478 0535                                            l1486 05F4  
                                          l1494 0657                                            l1646 0170  
                                          l1638 015D                                            l1670 03E4  
                                          l1662 03A0                                            l1654 037C  
                                          l1830 059D                                            l1760 06CD  
                                          l1752 06C5                                            l1744 05E7  
                                          l1736 05DF                                            l1728 05CF  
                                          l1808 06A9                                            l1584 0301  
                                          l1592 0345                                            l1576 02E5  
                                          l1568 0291                                            l1488 05F7  
                                          l1496 065C                                            l1648 0174  
                                          l1680 0422                                            l1664 03B2  
                                          l1656 038D                                            l1832 05A6  
                                          l1762 06CE                                            l1754 06C8  
                                          l1746 05E9                                            l1738 05E1  
                                          l1770 0677                                            l1594 034A  
                                          l1586 0305                                            l1578 02F2  
                                          l1498 0660                                            l1674 03FE  
                                          l1666 03C3                                            l1658 0395  
                                          l1690 0433                                            l1834 05AE  
                                          l1850 0461                                            l1780 0624  
                                          l1756 06C9                                            l1748 05EB  
                                          l1772 0678                                            l1764 066F  
                                          l1588 0327                                            l1596 0027  
                                          l1692 044C                                            l1676 040F  
                                          l1684 0428                                            l1668 03CB  
                                          l1836 05B4                                            l1828 0596  
                                          l1860 047A                                            l1852 0462  
                                          l1782 062B                                            l1758 06CC  
                                          l1774 067F                                            l1766 0674  
                                          l1790 06DA                                            l1598 0037  
                                          l1686 0430                                            l1678 0417  
                                          l1862 0481                                            l1870 04C8  
                                          l1854 0463                                            l1784 0632  
                                          l1776 061A                                            l1768 0675  
                                          l1864 048D                                            l1856 046D  
                                          l1848 0457                                            l1786 0639  
                                          l1778 0623                                            l1698 0702  
                                          l1794 0683                                            l1866 04B4  
                                          l1858 0477                                            l1796 0688  
                                          l1868 04BC                                            ?_pad 0024  
                                          STR_1 0695                                            u1010 0042  
                                          u1011 0040                                            u1100 0136  
                                          u1020 0043                                            u1101 0135  
                                          u1110 0143                                            u1030 0050  
                                          u1111 0142                                            u1031 004F  
                                          u1120 0151                                            u1200 040F  
                                          u1121 0150                                            u1201 040E  
                                          u1130 0156                                            u1050 0073  
                                          u1210 058D                                            u1131 0155  
                                          u1115 013F                                            u1051 0072  
                                          u1211 058C                                            u1140 015D  
                                          u1060 0088                                            u1300 04B4  
                                          u1141 015C                                            u1125 014D  
                                          u1061 0087                                            u1301 04B3  
                                          u1150 0161                                            u1070 00A4  
                                          u1310 04C6                                            u1151 0160  
                                          u1071 00A3                                            u1311 04C3  
                                          u1160 016B                                            u1080 00A8  
                                          u1161 016A                                            u1081 00A7  
                                          u1065 0084                                            u1305 04B0  
                                          u1090 0129                                            u1170 038D  
                                          u1250 059D                                            u1091 0128  
                                          u1171 038C                                            u1251 059C  
                                          u1180 03B2                                            u1324 04C8  
                                          u1181 03B1                                            _LATA 0018  
                                          u1190 03C3                                            _LATB 0019  
                                          u1095 0125                                            u1191 03C2  
                                          _LATC 001A                                            u1280 0477  
                                          u1281 0476                                            u1290 0481  
                                          u1291 0480                                            u1285 0473  
                                          _PMD0 0796                                            i1l13 0012  
                                          _PMD1 0797                                            _PMD2 0798  
                                          _PMD3 0799                                            _PMD4 079A  
                                          _PMD5 079B                                            _WPUA 1F39  
                                          _WPUB 1F44                                            _WPUC 1F4F  
                                          _WPUE 1F65                                   _EUSART1_Write 06D0  
                                 __CFG_FCMEN$ON 0000                                            abs@a 0073  
                                          _dbuf 00B9                                            _main 0457  
                                          _dtoa 0025                                            _prec 00AC  
                                          _nout 00A8                                            pad@i 0028  
                                          pad@p 0025                                            fsr0h 0005  
                                          fsr1h 0007                                            indf0 0000  
                                          fsr0l 0004                                            indf1 0001  
                                          fsr1l 0006                                            pad@w 002A  
                                          btemp 007E                                   __CFG_BOREN$ON 0000  
                                          start 0014                                   __CFG_CSWEN$ON 0000  
                                 __CFG_MCLRE$ON 0000                                           ??_abs 0075  
                                         ??_pad 0027                         __end_of_TMR0_Initialize 0683  
                ??_TMR0_DefaultInterruptHandler 0070                  __size_of_OSCILLATOR_Initialize 000B  
                 __end_of_OSCILLATOR_Initialize 06D0                                 __end_of___aodiv 0290  
                                         ?_main 0070                                           ?_dtoa 0030  
                               __end_of___aomod 037A                                   __CFG_WDTE$OFF 0000  
                                         i1l162 071A                                           i1l156 06C4  
                                         i1l273 06ED                                           _OSCEN 0891  
                                  vfpfcnvrt@fmt 004E                                           _TMR0H 059D  
                                         _TMR0L 059C                                           _TRISA 0012  
                                         _TRISB 0013                                           _TRISC 0014  
             __size_of_TMR0_SetInterruptHandler 0006                                           u81lld 01B9  
                                         u90lld 027E                       ?_TMR0_SetInterruptHandler 0070  
                                         u83lld 01E4                                           u92lld 02BA  
                                         u94lld 02E5                                __end_of_TMR0_ISR 06C5  
                                 __CFG_WRTB$OFF 0000                                   __CFG_WRTC$OFF 0000  
                                 __CFG_WRTD$OFF 0000                                           _flags 006E  
                                         _fputc 0526                                           _fputs 05F2  
                                         pad@fp 002C                                           _width 00AA  
                                         _putch 06FC                                           dtoa@d 0030  
                                         dtoa@i 004C                                           dtoa@n 0044  
                                         dtoa@p 003D                                           dtoa@s 0042  
                                         dtoa@w 0040                                  ?_EUSART1_Write 0070  
                                         pclath 000A                                ??_timer_callback 0070  
                                         status 0003                                           wtemp0 007E  
                                __CFG_LCDPEN$ON 0000              _EUSART1_DefaultFramingErrorHandler 0000  
                               __initialization 0016                      __end_of_EUSART1_Initialize 063C  
                                  __end_of_main 04D0                                    __end_of_dtoa 018F  
                                __CFG_SAFEN$OFF 0000                     ?_INTERRUPT_InterruptManager 0070  
                                        ??_main 00D9                                          ??_dtoa 0038  
                                        ?_fputc 0072                                          _ACTCON 0894  
                                        ?_fputs 007A                                          _ANSELA 1F38  
                                        ?_putch 0070                                          _ANSELB 1F43  
                                        _ANSELC 1F4E                              __CFG_RSTOSC$HFINT1 0000  
                                        _T0CON0 059E                                          _T0CON1 059F  
                                        _RC1REG 0119                                          _RC1STA 011D  
                                        _ODCONA 1F3A                                          _ODCONB 1F45  
                                        _ODCONC 1F50                                          _RC6PPS 1F26  
                                        i1l1800 06B6                                          i1l1802 06B8  
                                        i1l1804 06BF                                          u122_20 06BF  
                                        i1l1840 000B                                          u122_21 06BE  
                                        i1l1842 000F                                          i1l1838 0006  
                                        i1l1788 06E4                                  __CFG_WDTCCS$SC 0000  
                                        u126_20 000B                                          u126_21 000A  
                                        u127_20 000F                                          u127_21 000E  
                                        _INLVLA 1F3C                                          _INLVLB 1F47  
                                        _INLVLC 1F52                                          _INLVLE 1F68  
                                        u100lld 0368                                          u104lld 006E  
                                        _OSCFRQ 0893                                 __CFG_BBSIZE$512 0000  
                                        _RX1PPS 1ECB                                          _TX1REG 011A  
                                        _TX1STA 011E                                  __CFG_PWRTE$OFF 0000  
                                  vfprintf@cfmt 0064                                       ??___aodiv 0070  
                                     ??___aomod 0070                                  __CFG_STVREN$ON 0000  
                      ?_EUSART1_SetErrorHandler 0070                                ?_TMR0_Initialize 0070  
                                        _millis 06DA                                          _ticker 00A4  
                                        _printf 0683                                          pad@buf 0024  
              ??_EUSART1_SetOverrunErrorHandler 0072                 ?_EUSART1_SetOverrunErrorHandler 0070  
                                        dtoa@fp 003F                                          _strlen 0656  
                                        fputc@c 0072                                  _PMD_Initialize 06EE  
                                        fputs@c 0020                                          fputs@i 0021  
                                        fputs@s 0023                                __end_of_vfprintf 0596  
                               ??_EUSART1_Write 0070        TMR0_SetInterruptHandler@InterruptHandler 0070  
                             _SYSTEM_Initialize 06A6                         __end_of__initialization 0021  
                            ?_SYSTEM_Initialize 0070                                    ?_updateState 0070  
                                __pcstackCOMMON 0070                             ??_SYSTEM_Initialize 0072  
                                     ?_TMR0_ISR 0070                                   __end_of_fputc 0565  
                                 __end_of_fputs 061A                                   __end_of_putch 0702  
                        __end_of_PMD_Initialize 06F6                                         ??_fputc 0075  
                     __end_of_SYSTEM_Initialize 06B6                                         ??_fputs 007B  
                                       ??_putch 0071                                      __pbssBANK0 006E  
                                    __pbssBANK1 00A0                                 __CFG_VBATEN$OFF 0000  
               __end_of_EUSART1_SetErrorHandler 071A                                      __pmaintext 0457  
              __end_of_TMR0_SetInterruptHandler 0708                                      ??_TMR0_ISR 0070  
                               __CFG_PPS1WAY$ON 0000                                      _endPressed 00B2  
                                    __pintentry 0004                                         ?_millis 0070  
                                       ?_printf 0066                                 ?_PMD_Initialize 0070  
                                       ?_strlen 0070          __end_of_EUSART1_SetFramingErrorHandler 0714  
       __size_of_EUSART1_SetFramingErrorHandler 0006                  _EUSART1_SetFramingErrorHandler 070E  
                                       _SP1BRGH 011C                                         _SP1BRGL 011B  
                                       _OSCCON1 088D                                         _OSCCON3 088F  
                            __size_of_vfpfcnvrt 00DD                                         _OSCSTAT 0890  
                                       _OSCTUNE 0892                                         _SLRCONA 1F3B  
                                       _SLRCONB 1F46                                         _SLRCONC 1F51  
                                       ___aodiv 018F                                         ___aomod 0290  
                                     ?_vfprintf 005E                                 __size_of_millis 000A  
                                       __ptext1 0596                                         __ptext2 0683  
                                       __ptext3 0565                                         __ptext4 037A  
                                       __ptext5 0025                                         __ptext6 04D0  
                                       __ptext7 0656                                         __ptext8 05F2  
                                       __ptext9 0526                                 __size_of_printf 0012  
                               __CFG_WRTAPP$OFF 0000                                 __size_of_strlen 0019  
                         _OSCILLATOR_Initialize 06C5                                    __size_of_abs 001A  
                                  __size_of_pad 0056                              _EUSART1_Initialize 061A  
                      ??_PIN_MANAGER_Initialize 0070                                 __CFG_WRTSAF$OFF 0000  
                    __size_of_SYSTEM_Initialize 0010                                         clrloop0 06F7  
                          end_of_initialization 0021                             ?_EUSART1_Initialize 0070  
                                       fputc@fp 0074                     _EUSART1_OverrunErrorHandler 00E9  
                                       fputs@fp 007A                               __end_of_vfpfcnvrt 0457  
                          __size_of_updateState 002F                                      ??_vfprintf 0061  
                          ??_EUSART1_Initialize 0072                           __CFG_WDTCPS$WDTCPS_31 0000  
                                       strlen@a 0073                                         strlen@s 0074  
                      _TMR0_SetInterruptHandler 0702                                       _PORTCbits 000E  
              __size_of_EUSART1_SetErrorHandler 0006                             EUSART1_Write@txData 0070  
                              __CFG_FEXTOSC$OFF 0000                         __size_of_timer_callback 000A  
                                   vfpfcnvrt@ap 004F                                     vfpfcnvrt@fp 005D  
                                   vfpfcnvrt@ll 0055                               __size_of_TMR0_ISR 000F  
                        ?_OSCILLATOR_Initialize 0070                                  __end_of_millis 06E4  
                                __end_of_printf 0695                                  __end_of_strlen 066F  
                           start_initialization 0016                        __size_of_TMR0_Initialize 0014  
               __size_of_PIN_MANAGER_Initialize 002D                                     __end_of_abs 0656  
                                   __end_of_pad 0526                                     putch@txData 0071  
                         __end_of_EUSART1_Write 06DA                                __CFG_LPBOREN$OFF 0000  
                                   vfprintf@fmt 005E                                ??_PMD_Initialize 0070  
                                      ??_millis 0074                                        ??_printf 006A  
                                      ??_strlen 0072                                       ___latbits 0003  
                               _lastButtonState 00B6                                   __pcstackBANK0 0020  
                                 __pcstackBANK1 00D9                                ___aodiv@dividend 0028  
              ??_EUSART1_SetFramingErrorHandler 0072                 ?_EUSART1_SetFramingErrorHandler 0070  
                         _TMR0_InterruptHandler 00ED                                       __pnvBANK1 00E5  
                        _PIN_MANAGER_Initialize 05C5                                        ?___aodiv 0020  
                                      ?___aomod 0020                                ___aodiv@quotient 0073  
                  ??_INTERRUPT_InterruptManager 0070                               __size_of_vfprintf 0031  
                                      _BAUD1CON 011F              _EUSART1_DefaultOverrunErrorHandler 0000  
                          _EUSART1_ErrorHandler 00E7                         _EUSART1_SetErrorHandler 0714  
                                __size_of_fputc 003F                                  __size_of_fputs 0028  
                                __size_of_putch 0006                               ??_TMR0_Initialize 0072  
       EUSART1_SetErrorHandler@interruptHandler 0070                                        _LATCbits 001A  
                                     clear_ram0 06F6                                        _PIE0bits 0716  
           __size_of_INTERRUPT_InterruptManager 0010                      ??_TMR0_SetInterruptHandler 0072  
                                      _PIR0bits 070C                                        _PIR3bits 070F  
                                _timer_callback 06E4                                        _TMR0_ISR 06B6  
                                     _vfpfcnvrt 037A                                   ??_updateState 007E  
                        __end_of_timer_callback 06EE                                      vfprintf@ap 0060  
                                    vfprintf@fp 0063                         ??_OSCILLATOR_Initialize 0070  
                              __size_of___aodiv 0101                                __size_of___aomod 00EA  
                   __size_of_EUSART1_Initialize 0022                                      ?_vfpfcnvrt 004E  
                               ___aodiv@divisor 0020                                 ___aodiv@counter 0071  
                     ??_EUSART1_SetErrorHandler 0072                     _EUSART1_DefaultErrorHandler 0000  
                                   _buttonState 00E5                                      _T0CON0bits 059E  
                                      _dtoa$687 003B                                        __ptext10 06FC  
                                      __ptext11 06D0                                        __ptext20 05C5  
                                      __ptext12 063C                                        __ptext21 06C5  
                                      __ptext13 0290                                        __ptext22 061A  
                                      __ptext14 018F                                        __ptext23 0708  
                                      __ptext15 06DA                                        __ptext24 070E  
                                      __ptext16 06A6                                        __ptext25 0714  
                                      __ptext17 066F                                        __ptext18 0702  
                                      __ptext27 06B6                                        __ptext19 06EE  
                                      __ptext28 071A                                        __ptext29 06E4  
                                      _idleTime 00AE                                        _holdTime 00B0  
                                 __size_of_main 0079                                   __size_of_dtoa 016A  
                                _previousMillis 00A0            __end_of_TMR0_DefaultInterruptHandler 071B  
         __size_of_TMR0_DefaultInterruptHandler 0001                    _TMR0_DefaultInterruptHandler 071A  
                          __CFG_WDTCWS$WDTCWS_7 0000                                 ?_timer_callback 0070  
                                    _RC1STAbits 011D  EUSART1_SetOverrunErrorHandler@interruptHandler 0070  
                                      int$flags 007E                                        _vfprintf 0565  
            __end_of_INTERRUPT_InterruptManager 0014                      _INTERRUPT_InterruptManager 0004  
                                     printf@fmt 0066                             __end_of_updateState 05C5  
                   _EUSART1_FramingErrorHandler 00EB                                ___aomod@dividend 0028  
                                    _INTCONbits 000B                                        intlevel1 0000  
                       ?_PIN_MANAGER_Initialize 0070                               __CFG_CLKOUTEN$OFF 0000  
        __end_of_EUSART1_SetOverrunErrorHandler 070E         __size_of_EUSART1_SetOverrunErrorHandler 0006  
                _EUSART1_SetOverrunErrorHandler 0708                   ?_TMR0_DefaultInterruptHandler 0070  
                                      printf@ap 006D  EUSART1_SetFramingErrorHandler@interruptHandler 0070  
                               ___aomod@divisor 0020                                     ??_vfpfcnvrt 0050  
                               ___aomod@counter 0071                          __size_of_EUSART1_Write 000A  
                            _eusart1RxLastError 00B8                                   __pstringtext1 0695  
                                 __pstringtext2 0000                                 _TMR0_Initialize 066F  
                                    _TX1STAbits 011E                                    ___aodiv@sign 0072  
                __end_of_PIN_MANAGER_Initialize 05F2                                    ___aomod@sign 0072  
                                   _updateState 0596  
